

Microchip MPLAB XC8 Assembler V2.35 build 20211206165544 
                                                                                               Fri Apr  8 11:42:48 2022

Microchip MPLAB XC8 C Compiler v2.35 (Free license) build 20211206165544 Og1 
     1                           	processor	16F1619
     2                           	pagewidth 120
     3                           	opt	flic
     4                           	psect	idataBANK0,global,class=CODE,delta=2,noexec
     5                           	psect	stringtext1,global,class=STRCODE,delta=2,noexec
     6                           	psect	stringtext2,global,class=STRCODE,delta=2,noexec
     7                           	psect	stringtext3,global,class=STRCODE,delta=2,noexec
     8                           	psect	cinit,global,class=CODE,merge=1,delta=2
     9                           	psect	bssBANK0,global,class=BANK0,space=1,delta=1,noexec
    10                           	psect	dataBANK0,global,class=BANK0,space=1,delta=1,noexec
    11                           	psect	inittext,global,class=CODE,delta=2
    12                           	psect	cstackCOMMON,global,class=COMMON,space=1,delta=1,noexec
    13                           	psect	cstackBANK0,global,class=BANK0,space=1,delta=1,noexec
    14                           	psect	maintext,global,class=CODE,merge=1,split=1,delta=2
    15                           	psect	text1,local,class=CODE,merge=1,delta=2
    16                           	psect	text2,local,class=CODE,merge=1,delta=2
    17                           	psect	text3,local,class=CODE,merge=1,delta=2
    18                           	psect	text4,local,class=CODE,merge=1,delta=2
    19                           	psect	text5,local,class=CODE,merge=1,delta=2
    20                           	psect	text6,local,class=CODE,merge=1,delta=2
    21                           	psect	text7,local,class=CODE,merge=1,delta=2
    22                           	psect	text8,local,class=CODE,merge=1,delta=2
    23                           	psect	text9,local,class=CODE,merge=1,delta=2,group=1
    24                           	psect	text10,local,class=CODE,merge=1,delta=2,group=1
    25                           	psect	text11,local,class=CODE,merge=1,delta=2
    26                           	psect	text12,local,class=CODE,merge=1,delta=2
    27                           	psect	text13,local,class=CODE,merge=1,delta=2
    28                           	psect	idloc,global,abs,ovrld,class=IDLOC,space=5,delta=2,noexec
    29                           	psect	config,global,abs,ovrld,class=CONFIG,space=4,delta=2,noexec
    30                           	dabs	1,0x7E,2
    31  0000                     
    32                           ; Version 2.40
    33                           ; Generated 17/11/2021 GMT
    34                           ; 
    35                           ; Copyright © 2021, Microchip Technology Inc. and its subsidiaries ("Microchip")
    36                           ; All rights reserved.
    37                           ; 
    38                           ; This software is developed by Microchip Technology Inc. and its subsidiaries ("Microch
      +                          ip").
    39                           ; 
    40                           ; Redistribution and use in source and binary forms, with or without modification, are
    41                           ; permitted provided that the following conditions are met:
    42                           ; 
    43                           ;     1. Redistributions of source code must retain the above copyright notice, this lis
      +                          t of
    44                           ;        conditions and the following disclaimer.
    45                           ; 
    46                           ;     2. Redistributions in binary form must reproduce the above copyright notice, this 
      +                          list
    47                           ;        of conditions and the following disclaimer in the documentation and/or other
    48                           ;        materials provided with the distribution. Publication is not required when
    49                           ;        this file is used in an embedded application.
    50                           ; 
    51                           ;     3. Microchip's name may not be used to endorse or promote products derived from th
      +                          is
    52                           ;        software without specific prior written permission.
    53                           ; 
    54                           ; THIS SOFTWARE IS PROVIDED BY MICROCHIP "AS IS" AND ANY EXPRESS OR IMPLIED WARRANTIES,
    55                           ; INCLUDING, BUT NOT LIMITED TO, THE IMPLIED WARRANTIES OF MERCHANTABILITY AND FITNESS F
      +                          OR
    56                           ; PURPOSE ARE DISCLAIMED.  IN NO EVENT SHALL MICROCHIP BE LIABLE FOR ANY DIRECT, INDIREC
      +                          T,
    57                           ; INCIDENTAL, SPECIAL, EXEMPLARY, OR CONSEQUENTIAL DAMAGES (INCLUDING BUT NOT LIMITED TO
    58                           ; PROCUREMENT OF SUBSTITUTE GOODS OR SERVICES; LOSS OF USE, DATA OR PROFITS; OR BUSINESS
    59                           ; INTERRUPTION) HOWSOEVER CAUSED AND ON ANY THEORY OF LIABILITY, WHETHER IN CONTRACT, ST
      +                          RICT
    60                           ; LIABILITY, OR TORT (INCLUDING NEGLIGENCE OR OTHERWISE) ARISING IN ANY WAY OUT OF THE U
      +                          SE OF
    61                           ; THIS SOFTWARE, EVEN IF ADVISED OF THE POSSIBILITY OF SUCH DAMAGE.
    62                           ; 
    63                           ; 
    64                           ; Code-generator required, PIC16F1619 Definitions
    65                           ; 
    66                           ; SFR Addresses
    67  0000                     	;# 
    68  0001                     	;# 
    69  0002                     	;# 
    70  0003                     	;# 
    71  0004                     	;# 
    72  0005                     	;# 
    73  0006                     	;# 
    74  0007                     	;# 
    75  0008                     	;# 
    76  0009                     	;# 
    77  000A                     	;# 
    78  000B                     	;# 
    79  000C                     	;# 
    80  000D                     	;# 
    81  000E                     	;# 
    82  0010                     	;# 
    83  0011                     	;# 
    84  0012                     	;# 
    85  0013                     	;# 
    86  0014                     	;# 
    87  0015                     	;# 
    88  0016                     	;# 
    89  0016                     	;# 
    90  0017                     	;# 
    91  0018                     	;# 
    92  0019                     	;# 
    93  001A                     	;# 
    94  001A                     	;# 
    95  001B                     	;# 
    96  001B                     	;# 
    97  001C                     	;# 
    98  001D                     	;# 
    99  001E                     	;# 
   100  001F                     	;# 
   101  008C                     	;# 
   102  008D                     	;# 
   103  008E                     	;# 
   104  0090                     	;# 
   105  0091                     	;# 
   106  0092                     	;# 
   107  0093                     	;# 
   108  0094                     	;# 
   109  0095                     	;# 
   110  0096                     	;# 
   111  0098                     	;# 
   112  0099                     	;# 
   113  009A                     	;# 
   114  009B                     	;# 
   115  009B                     	;# 
   116  009C                     	;# 
   117  009D                     	;# 
   118  009E                     	;# 
   119  009F                     	;# 
   120  010C                     	;# 
   121  010D                     	;# 
   122  010E                     	;# 
   123  0111                     	;# 
   124  0112                     	;# 
   125  0113                     	;# 
   126  0114                     	;# 
   127  0115                     	;# 
   128  0116                     	;# 
   129  0117                     	;# 
   130  0118                     	;# 
   131  0119                     	;# 
   132  011C                     	;# 
   133  018C                     	;# 
   134  018D                     	;# 
   135  018E                     	;# 
   136  0191                     	;# 
   137  0191                     	;# 
   138  0192                     	;# 
   139  0193                     	;# 
   140  0193                     	;# 
   141  0194                     	;# 
   142  0195                     	;# 
   143  0196                     	;# 
   144  0197                     	;# 
   145  0199                     	;# 
   146  0199                     	;# 
   147  0199                     	;# 
   148  019A                     	;# 
   149  019A                     	;# 
   150  019A                     	;# 
   151  019B                     	;# 
   152  019B                     	;# 
   153  019B                     	;# 
   154  019B                     	;# 
   155  019B                     	;# 
   156  019C                     	;# 
   157  019C                     	;# 
   158  019C                     	;# 
   159  019D                     	;# 
   160  019D                     	;# 
   161  019D                     	;# 
   162  019E                     	;# 
   163  019E                     	;# 
   164  019E                     	;# 
   165  019F                     	;# 
   166  019F                     	;# 
   167  019F                     	;# 
   168  019F                     	;# 
   169  019F                     	;# 
   170  020C                     	;# 
   171  020D                     	;# 
   172  020E                     	;# 
   173  0211                     	;# 
   174  0211                     	;# 
   175  0212                     	;# 
   176  0212                     	;# 
   177  0213                     	;# 
   178  0213                     	;# 
   179  0214                     	;# 
   180  0214                     	;# 
   181  0215                     	;# 
   182  0215                     	;# 
   183  0215                     	;# 
   184  0215                     	;# 
   185  0216                     	;# 
   186  0216                     	;# 
   187  0217                     	;# 
   188  0217                     	;# 
   189  028C                     	;# 
   190  028D                     	;# 
   191  028E                     	;# 
   192  0291                     	;# 
   193  0291                     	;# 
   194  0292                     	;# 
   195  0293                     	;# 
   196  0294                     	;# 
   197  0298                     	;# 
   198  0298                     	;# 
   199  0299                     	;# 
   200  029A                     	;# 
   201  029B                     	;# 
   202  029E                     	;# 
   203  030C                     	;# 
   204  030D                     	;# 
   205  030E                     	;# 
   206  038C                     	;# 
   207  038D                     	;# 
   208  038E                     	;# 
   209  0391                     	;# 
   210  0392                     	;# 
   211  0393                     	;# 
   212  0394                     	;# 
   213  0395                     	;# 
   214  0396                     	;# 
   215  0397                     	;# 
   216  0398                     	;# 
   217  0399                     	;# 
   218  040E                     	;# 
   219  0413                     	;# 
   220  0413                     	;# 
   221  0414                     	;# 
   222  0414                     	;# 
   223  0415                     	;# 
   224  0416                     	;# 
   225  0417                     	;# 
   226  0418                     	;# 
   227  041A                     	;# 
   228  041A                     	;# 
   229  041B                     	;# 
   230  041B                     	;# 
   231  041C                     	;# 
   232  041D                     	;# 
   233  041E                     	;# 
   234  041F                     	;# 
   235  0493                     	;# 
   236  0494                     	;# 
   237  0495                     	;# 
   238  0496                     	;# 
   239  049A                     	;# 
   240  049B                     	;# 
   241  049C                     	;# 
   242  049D                     	;# 
   243  058C                     	;# 
   244  058C                     	;# 
   245  058D                     	;# 
   246  058E                     	;# 
   247  058E                     	;# 
   248  058F                     	;# 
   249  0590                     	;# 
   250  0590                     	;# 
   251  0591                     	;# 
   252  0592                     	;# 
   253  0592                     	;# 
   254  0593                     	;# 
   255  0594                     	;# 
   256  0594                     	;# 
   257  0595                     	;# 
   258  0596                     	;# 
   259  0596                     	;# 
   260  0597                     	;# 
   261  0598                     	;# 
   262  0599                     	;# 
   263  059A                     	;# 
   264  059B                     	;# 
   265  059B                     	;# 
   266  059C                     	;# 
   267  059D                     	;# 
   268  060C                     	;# 
   269  060C                     	;# 
   270  060D                     	;# 
   271  060E                     	;# 
   272  060F                     	;# 
   273  060F                     	;# 
   274  0610                     	;# 
   275  0611                     	;# 
   276  0612                     	;# 
   277  0613                     	;# 
   278  0614                     	;# 
   279  0617                     	;# 
   280  0617                     	;# 
   281  0618                     	;# 
   282  0619                     	;# 
   283  061A                     	;# 
   284  061A                     	;# 
   285  061B                     	;# 
   286  061C                     	;# 
   287  0691                     	;# 
   288  0692                     	;# 
   289  0693                     	;# 
   290  0694                     	;# 
   291  0695                     	;# 
   292  0696                     	;# 
   293  0697                     	;# 
   294  0699                     	;# 
   295  069A                     	;# 
   296  0711                     	;# 
   297  0712                     	;# 
   298  0713                     	;# 
   299  0714                     	;# 
   300  0715                     	;# 
   301  0718                     	;# 
   302  0718                     	;# 
   303  0719                     	;# 
   304  071A                     	;# 
   305  071A                     	;# 
   306  071B                     	;# 
   307  071C                     	;# 
   308  071D                     	;# 
   309  0791                     	;# 
   310  0791                     	;# 
   311  0792                     	;# 
   312  0793                     	;# 
   313  0793                     	;# 
   314  0794                     	;# 
   315  0795                     	;# 
   316  0795                     	;# 
   317  0796                     	;# 
   318  0797                     	;# 
   319  0797                     	;# 
   320  0798                     	;# 
   321  0799                     	;# 
   322  079A                     	;# 
   323  080C                     	;# 
   324  080C                     	;# 
   325  080D                     	;# 
   326  080E                     	;# 
   327  080E                     	;# 
   328  080F                     	;# 
   329  0810                     	;# 
   330  0810                     	;# 
   331  0811                     	;# 
   332  0812                     	;# 
   333  0812                     	;# 
   334  0813                     	;# 
   335  0814                     	;# 
   336  0815                     	;# 
   337  0816                     	;# 
   338  0817                     	;# 
   339  0818                     	;# 
   340  0819                     	;# 
   341  081A                     	;# 
   342  081A                     	;# 
   343  081B                     	;# 
   344  081C                     	;# 
   345  081C                     	;# 
   346  081D                     	;# 
   347  088C                     	;# 
   348  088D                     	;# 
   349  088E                     	;# 
   350  088F                     	;# 
   351  088F                     	;# 
   352  0890                     	;# 
   353  0891                     	;# 
   354  0892                     	;# 
   355  0893                     	;# 
   356  0893                     	;# 
   357  0894                     	;# 
   358  0895                     	;# 
   359  0896                     	;# 
   360  0897                     	;# 
   361  0897                     	;# 
   362  0898                     	;# 
   363  0899                     	;# 
   364  0D8C                     	;# 
   365  0D8C                     	;# 
   366  0D8D                     	;# 
   367  0D8E                     	;# 
   368  0D8F                     	;# 
   369  0D8F                     	;# 
   370  0D90                     	;# 
   371  0D91                     	;# 
   372  0D92                     	;# 
   373  0D92                     	;# 
   374  0D93                     	;# 
   375  0D94                     	;# 
   376  0D95                     	;# 
   377  0D95                     	;# 
   378  0D96                     	;# 
   379  0D97                     	;# 
   380  0D98                     	;# 
   381  0D99                     	;# 
   382  0D9A                     	;# 
   383  0D9B                     	;# 
   384  0D9C                     	;# 
   385  0D9D                     	;# 
   386  0D9E                     	;# 
   387  0D9E                     	;# 
   388  0D9F                     	;# 
   389  0DA0                     	;# 
   390  0DA1                     	;# 
   391  0DA1                     	;# 
   392  0DA2                     	;# 
   393  0DA3                     	;# 
   394  0DA4                     	;# 
   395  0DA4                     	;# 
   396  0DA5                     	;# 
   397  0DA6                     	;# 
   398  0DA7                     	;# 
   399  0DA7                     	;# 
   400  0DA8                     	;# 
   401  0DA9                     	;# 
   402  0DAA                     	;# 
   403  0DAB                     	;# 
   404  0DAC                     	;# 
   405  0DAD                     	;# 
   406  0DAE                     	;# 
   407  0DAF                     	;# 
   408  0E0F                     	;# 
   409  0E10                     	;# 
   410  0E11                     	;# 
   411  0E12                     	;# 
   412  0E13                     	;# 
   413  0E14                     	;# 
   414  0E15                     	;# 
   415  0E16                     	;# 
   416  0E17                     	;# 
   417  0E18                     	;# 
   418  0E19                     	;# 
   419  0E1A                     	;# 
   420  0E1B                     	;# 
   421  0E1C                     	;# 
   422  0E1D                     	;# 
   423  0E1E                     	;# 
   424  0E1F                     	;# 
   425  0E20                     	;# 
   426  0E21                     	;# 
   427  0E22                     	;# 
   428  0E23                     	;# 
   429  0E24                     	;# 
   430  0E25                     	;# 
   431  0E26                     	;# 
   432  0E27                     	;# 
   433  0E28                     	;# 
   434  0E29                     	;# 
   435  0E2A                     	;# 
   436  0E2B                     	;# 
   437  0E2C                     	;# 
   438  0E2D                     	;# 
   439  0E2E                     	;# 
   440  0E90                     	;# 
   441  0E91                     	;# 
   442  0E92                     	;# 
   443  0E94                     	;# 
   444  0E95                     	;# 
   445  0E9C                     	;# 
   446  0E9D                     	;# 
   447  0E9E                     	;# 
   448  0E9F                     	;# 
   449  0EA0                     	;# 
   450  0EA1                     	;# 
   451  0EA2                     	;# 
   452  0EA3                     	;# 
   453  0EA4                     	;# 
   454  0EA5                     	;# 
   455  0EA6                     	;# 
   456  0EA7                     	;# 
   457  0F0F                     	;# 
   458  0F10                     	;# 
   459  0F11                     	;# 
   460  0F12                     	;# 
   461  0F13                     	;# 
   462  0F14                     	;# 
   463  0F15                     	;# 
   464  0F16                     	;# 
   465  0F17                     	;# 
   466  0F18                     	;# 
   467  0F19                     	;# 
   468  0F1A                     	;# 
   469  0F1B                     	;# 
   470  0F1C                     	;# 
   471  0F1D                     	;# 
   472  0F1E                     	;# 
   473  0F1F                     	;# 
   474  0F20                     	;# 
   475  0F21                     	;# 
   476  0F22                     	;# 
   477  0F23                     	;# 
   478  0F24                     	;# 
   479  0F25                     	;# 
   480  0F26                     	;# 
   481  0F27                     	;# 
   482  0F28                     	;# 
   483  0F29                     	;# 
   484  0F2A                     	;# 
   485  0F2B                     	;# 
   486  0F2C                     	;# 
   487  0F2D                     	;# 
   488  0F2E                     	;# 
   489  0F2F                     	;# 
   490  0F30                     	;# 
   491  0F31                     	;# 
   492  0F32                     	;# 
   493  0F33                     	;# 
   494  0F34                     	;# 
   495  0F35                     	;# 
   496  0F36                     	;# 
   497  0F37                     	;# 
   498  0FE4                     	;# 
   499  0FE5                     	;# 
   500  0FE6                     	;# 
   501  0FE7                     	;# 
   502  0FE8                     	;# 
   503  0FE9                     	;# 
   504  0FEA                     	;# 
   505  0FEB                     	;# 
   506  0FED                     	;# 
   507  0FEE                     	;# 
   508  0FEF                     	;# 
   509  0000                     	;# 
   510  0001                     	;# 
   511  0002                     	;# 
   512  0003                     	;# 
   513  0004                     	;# 
   514  0005                     	;# 
   515  0006                     	;# 
   516  0007                     	;# 
   517  0008                     	;# 
   518  0009                     	;# 
   519  000A                     	;# 
   520  000B                     	;# 
   521  000C                     	;# 
   522  000D                     	;# 
   523  000E                     	;# 
   524  0010                     	;# 
   525  0011                     	;# 
   526  0012                     	;# 
   527  0013                     	;# 
   528  0014                     	;# 
   529  0015                     	;# 
   530  0016                     	;# 
   531  0016                     	;# 
   532  0017                     	;# 
   533  0018                     	;# 
   534  0019                     	;# 
   535  001A                     	;# 
   536  001A                     	;# 
   537  001B                     	;# 
   538  001B                     	;# 
   539  001C                     	;# 
   540  001D                     	;# 
   541  001E                     	;# 
   542  001F                     	;# 
   543  008C                     	;# 
   544  008D                     	;# 
   545  008E                     	;# 
   546  0090                     	;# 
   547  0091                     	;# 
   548  0092                     	;# 
   549  0093                     	;# 
   550  0094                     	;# 
   551  0095                     	;# 
   552  0096                     	;# 
   553  0098                     	;# 
   554  0099                     	;# 
   555  009A                     	;# 
   556  009B                     	;# 
   557  009B                     	;# 
   558  009C                     	;# 
   559  009D                     	;# 
   560  009E                     	;# 
   561  009F                     	;# 
   562  010C                     	;# 
   563  010D                     	;# 
   564  010E                     	;# 
   565  0111                     	;# 
   566  0112                     	;# 
   567  0113                     	;# 
   568  0114                     	;# 
   569  0115                     	;# 
   570  0116                     	;# 
   571  0117                     	;# 
   572  0118                     	;# 
   573  0119                     	;# 
   574  011C                     	;# 
   575  018C                     	;# 
   576  018D                     	;# 
   577  018E                     	;# 
   578  0191                     	;# 
   579  0191                     	;# 
   580  0192                     	;# 
   581  0193                     	;# 
   582  0193                     	;# 
   583  0194                     	;# 
   584  0195                     	;# 
   585  0196                     	;# 
   586  0197                     	;# 
   587  0199                     	;# 
   588  0199                     	;# 
   589  0199                     	;# 
   590  019A                     	;# 
   591  019A                     	;# 
   592  019A                     	;# 
   593  019B                     	;# 
   594  019B                     	;# 
   595  019B                     	;# 
   596  019B                     	;# 
   597  019B                     	;# 
   598  019C                     	;# 
   599  019C                     	;# 
   600  019C                     	;# 
   601  019D                     	;# 
   602  019D                     	;# 
   603  019D                     	;# 
   604  019E                     	;# 
   605  019E                     	;# 
   606  019E                     	;# 
   607  019F                     	;# 
   608  019F                     	;# 
   609  019F                     	;# 
   610  019F                     	;# 
   611  019F                     	;# 
   612  020C                     	;# 
   613  020D                     	;# 
   614  020E                     	;# 
   615  0211                     	;# 
   616  0211                     	;# 
   617  0212                     	;# 
   618  0212                     	;# 
   619  0213                     	;# 
   620  0213                     	;# 
   621  0214                     	;# 
   622  0214                     	;# 
   623  0215                     	;# 
   624  0215                     	;# 
   625  0215                     	;# 
   626  0215                     	;# 
   627  0216                     	;# 
   628  0216                     	;# 
   629  0217                     	;# 
   630  0217                     	;# 
   631  028C                     	;# 
   632  028D                     	;# 
   633  028E                     	;# 
   634  0291                     	;# 
   635  0291                     	;# 
   636  0292                     	;# 
   637  0293                     	;# 
   638  0294                     	;# 
   639  0298                     	;# 
   640  0298                     	;# 
   641  0299                     	;# 
   642  029A                     	;# 
   643  029B                     	;# 
   644  029E                     	;# 
   645  030C                     	;# 
   646  030D                     	;# 
   647  030E                     	;# 
   648  038C                     	;# 
   649  038D                     	;# 
   650  038E                     	;# 
   651  0391                     	;# 
   652  0392                     	;# 
   653  0393                     	;# 
   654  0394                     	;# 
   655  0395                     	;# 
   656  0396                     	;# 
   657  0397                     	;# 
   658  0398                     	;# 
   659  0399                     	;# 
   660  040E                     	;# 
   661  0413                     	;# 
   662  0413                     	;# 
   663  0414                     	;# 
   664  0414                     	;# 
   665  0415                     	;# 
   666  0416                     	;# 
   667  0417                     	;# 
   668  0418                     	;# 
   669  041A                     	;# 
   670  041A                     	;# 
   671  041B                     	;# 
   672  041B                     	;# 
   673  041C                     	;# 
   674  041D                     	;# 
   675  041E                     	;# 
   676  041F                     	;# 
   677  0493                     	;# 
   678  0494                     	;# 
   679  0495                     	;# 
   680  0496                     	;# 
   681  049A                     	;# 
   682  049B                     	;# 
   683  049C                     	;# 
   684  049D                     	;# 
   685  058C                     	;# 
   686  058C                     	;# 
   687  058D                     	;# 
   688  058E                     	;# 
   689  058E                     	;# 
   690  058F                     	;# 
   691  0590                     	;# 
   692  0590                     	;# 
   693  0591                     	;# 
   694  0592                     	;# 
   695  0592                     	;# 
   696  0593                     	;# 
   697  0594                     	;# 
   698  0594                     	;# 
   699  0595                     	;# 
   700  0596                     	;# 
   701  0596                     	;# 
   702  0597                     	;# 
   703  0598                     	;# 
   704  0599                     	;# 
   705  059A                     	;# 
   706  059B                     	;# 
   707  059B                     	;# 
   708  059C                     	;# 
   709  059D                     	;# 
   710  060C                     	;# 
   711  060C                     	;# 
   712  060D                     	;# 
   713  060E                     	;# 
   714  060F                     	;# 
   715  060F                     	;# 
   716  0610                     	;# 
   717  0611                     	;# 
   718  0612                     	;# 
   719  0613                     	;# 
   720  0614                     	;# 
   721  0617                     	;# 
   722  0617                     	;# 
   723  0618                     	;# 
   724  0619                     	;# 
   725  061A                     	;# 
   726  061A                     	;# 
   727  061B                     	;# 
   728  061C                     	;# 
   729  0691                     	;# 
   730  0692                     	;# 
   731  0693                     	;# 
   732  0694                     	;# 
   733  0695                     	;# 
   734  0696                     	;# 
   735  0697                     	;# 
   736  0699                     	;# 
   737  069A                     	;# 
   738  0711                     	;# 
   739  0712                     	;# 
   740  0713                     	;# 
   741  0714                     	;# 
   742  0715                     	;# 
   743  0718                     	;# 
   744  0718                     	;# 
   745  0719                     	;# 
   746  071A                     	;# 
   747  071A                     	;# 
   748  071B                     	;# 
   749  071C                     	;# 
   750  071D                     	;# 
   751  0791                     	;# 
   752  0791                     	;# 
   753  0792                     	;# 
   754  0793                     	;# 
   755  0793                     	;# 
   756  0794                     	;# 
   757  0795                     	;# 
   758  0795                     	;# 
   759  0796                     	;# 
   760  0797                     	;# 
   761  0797                     	;# 
   762  0798                     	;# 
   763  0799                     	;# 
   764  079A                     	;# 
   765  080C                     	;# 
   766  080C                     	;# 
   767  080D                     	;# 
   768  080E                     	;# 
   769  080E                     	;# 
   770  080F                     	;# 
   771  0810                     	;# 
   772  0810                     	;# 
   773  0811                     	;# 
   774  0812                     	;# 
   775  0812                     	;# 
   776  0813                     	;# 
   777  0814                     	;# 
   778  0815                     	;# 
   779  0816                     	;# 
   780  0817                     	;# 
   781  0818                     	;# 
   782  0819                     	;# 
   783  081A                     	;# 
   784  081A                     	;# 
   785  081B                     	;# 
   786  081C                     	;# 
   787  081C                     	;# 
   788  081D                     	;# 
   789  088C                     	;# 
   790  088D                     	;# 
   791  088E                     	;# 
   792  088F                     	;# 
   793  088F                     	;# 
   794  0890                     	;# 
   795  0891                     	;# 
   796  0892                     	;# 
   797  0893                     	;# 
   798  0893                     	;# 
   799  0894                     	;# 
   800  0895                     	;# 
   801  0896                     	;# 
   802  0897                     	;# 
   803  0897                     	;# 
   804  0898                     	;# 
   805  0899                     	;# 
   806  0D8C                     	;# 
   807  0D8C                     	;# 
   808  0D8D                     	;# 
   809  0D8E                     	;# 
   810  0D8F                     	;# 
   811  0D8F                     	;# 
   812  0D90                     	;# 
   813  0D91                     	;# 
   814  0D92                     	;# 
   815  0D92                     	;# 
   816  0D93                     	;# 
   817  0D94                     	;# 
   818  0D95                     	;# 
   819  0D95                     	;# 
   820  0D96                     	;# 
   821  0D97                     	;# 
   822  0D98                     	;# 
   823  0D99                     	;# 
   824  0D9A                     	;# 
   825  0D9B                     	;# 
   826  0D9C                     	;# 
   827  0D9D                     	;# 
   828  0D9E                     	;# 
   829  0D9E                     	;# 
   830  0D9F                     	;# 
   831  0DA0                     	;# 
   832  0DA1                     	;# 
   833  0DA1                     	;# 
   834  0DA2                     	;# 
   835  0DA3                     	;# 
   836  0DA4                     	;# 
   837  0DA4                     	;# 
   838  0DA5                     	;# 
   839  0DA6                     	;# 
   840  0DA7                     	;# 
   841  0DA7                     	;# 
   842  0DA8                     	;# 
   843  0DA9                     	;# 
   844  0DAA                     	;# 
   845  0DAB                     	;# 
   846  0DAC                     	;# 
   847  0DAD                     	;# 
   848  0DAE                     	;# 
   849  0DAF                     	;# 
   850  0E0F                     	;# 
   851  0E10                     	;# 
   852  0E11                     	;# 
   853  0E12                     	;# 
   854  0E13                     	;# 
   855  0E14                     	;# 
   856  0E15                     	;# 
   857  0E16                     	;# 
   858  0E17                     	;# 
   859  0E18                     	;# 
   860  0E19                     	;# 
   861  0E1A                     	;# 
   862  0E1B                     	;# 
   863  0E1C                     	;# 
   864  0E1D                     	;# 
   865  0E1E                     	;# 
   866  0E1F                     	;# 
   867  0E20                     	;# 
   868  0E21                     	;# 
   869  0E22                     	;# 
   870  0E23                     	;# 
   871  0E24                     	;# 
   872  0E25                     	;# 
   873  0E26                     	;# 
   874  0E27                     	;# 
   875  0E28                     	;# 
   876  0E29                     	;# 
   877  0E2A                     	;# 
   878  0E2B                     	;# 
   879  0E2C                     	;# 
   880  0E2D                     	;# 
   881  0E2E                     	;# 
   882  0E90                     	;# 
   883  0E91                     	;# 
   884  0E92                     	;# 
   885  0E94                     	;# 
   886  0E95                     	;# 
   887  0E9C                     	;# 
   888  0E9D                     	;# 
   889  0E9E                     	;# 
   890  0E9F                     	;# 
   891  0EA0                     	;# 
   892  0EA1                     	;# 
   893  0EA2                     	;# 
   894  0EA3                     	;# 
   895  0EA4                     	;# 
   896  0EA5                     	;# 
   897  0EA6                     	;# 
   898  0EA7                     	;# 
   899  0F0F                     	;# 
   900  0F10                     	;# 
   901  0F11                     	;# 
   902  0F12                     	;# 
   903  0F13                     	;# 
   904  0F14                     	;# 
   905  0F15                     	;# 
   906  0F16                     	;# 
   907  0F17                     	;# 
   908  0F18                     	;# 
   909  0F19                     	;# 
   910  0F1A                     	;# 
   911  0F1B                     	;# 
   912  0F1C                     	;# 
   913  0F1D                     	;# 
   914  0F1E                     	;# 
   915  0F1F                     	;# 
   916  0F20                     	;# 
   917  0F21                     	;# 
   918  0F22                     	;# 
   919  0F23                     	;# 
   920  0F24                     	;# 
   921  0F25                     	;# 
   922  0F26                     	;# 
   923  0F27                     	;# 
   924  0F28                     	;# 
   925  0F29                     	;# 
   926  0F2A                     	;# 
   927  0F2B                     	;# 
   928  0F2C                     	;# 
   929  0F2D                     	;# 
   930  0F2E                     	;# 
   931  0F2F                     	;# 
   932  0F30                     	;# 
   933  0F31                     	;# 
   934  0F32                     	;# 
   935  0F33                     	;# 
   936  0F34                     	;# 
   937  0F35                     	;# 
   938  0F36                     	;# 
   939  0F37                     	;# 
   940  0FE4                     	;# 
   941  0FE5                     	;# 
   942  0FE6                     	;# 
   943  0FE7                     	;# 
   944  0FE8                     	;# 
   945  0FE9                     	;# 
   946  0FEA                     	;# 
   947  0FEB                     	;# 
   948  0FED                     	;# 
   949  0FEE                     	;# 
   950  0FEF                     	;# 
   951  0000                     	;# 
   952  0001                     	;# 
   953  0002                     	;# 
   954  0003                     	;# 
   955  0004                     	;# 
   956  0005                     	;# 
   957  0006                     	;# 
   958  0007                     	;# 
   959  0008                     	;# 
   960  0009                     	;# 
   961  000A                     	;# 
   962  000B                     	;# 
   963  000C                     	;# 
   964  000D                     	;# 
   965  000E                     	;# 
   966  0010                     	;# 
   967  0011                     	;# 
   968  0012                     	;# 
   969  0013                     	;# 
   970  0014                     	;# 
   971  0015                     	;# 
   972  0016                     	;# 
   973  0016                     	;# 
   974  0017                     	;# 
   975  0018                     	;# 
   976  0019                     	;# 
   977  001A                     	;# 
   978  001A                     	;# 
   979  001B                     	;# 
   980  001B                     	;# 
   981  001C                     	;# 
   982  001D                     	;# 
   983  001E                     	;# 
   984  001F                     	;# 
   985  008C                     	;# 
   986  008D                     	;# 
   987  008E                     	;# 
   988  0090                     	;# 
   989  0091                     	;# 
   990  0092                     	;# 
   991  0093                     	;# 
   992  0094                     	;# 
   993  0095                     	;# 
   994  0096                     	;# 
   995  0098                     	;# 
   996  0099                     	;# 
   997  009A                     	;# 
   998  009B                     	;# 
   999  009B                     	;# 
  1000  009C                     	;# 
  1001  009D                     	;# 
  1002  009E                     	;# 
  1003  009F                     	;# 
  1004  010C                     	;# 
  1005  010D                     	;# 
  1006  010E                     	;# 
  1007  0111                     	;# 
  1008  0112                     	;# 
  1009  0113                     	;# 
  1010  0114                     	;# 
  1011  0115                     	;# 
  1012  0116                     	;# 
  1013  0117                     	;# 
  1014  0118                     	;# 
  1015  0119                     	;# 
  1016  011C                     	;# 
  1017  018C                     	;# 
  1018  018D                     	;# 
  1019  018E                     	;# 
  1020  0191                     	;# 
  1021  0191                     	;# 
  1022  0192                     	;# 
  1023  0193                     	;# 
  1024  0193                     	;# 
  1025  0194                     	;# 
  1026  0195                     	;# 
  1027  0196                     	;# 
  1028  0197                     	;# 
  1029  0199                     	;# 
  1030  0199                     	;# 
  1031  0199                     	;# 
  1032  019A                     	;# 
  1033  019A                     	;# 
  1034  019A                     	;# 
  1035  019B                     	;# 
  1036  019B                     	;# 
  1037  019B                     	;# 
  1038  019B                     	;# 
  1039  019B                     	;# 
  1040  019C                     	;# 
  1041  019C                     	;# 
  1042  019C                     	;# 
  1043  019D                     	;# 
  1044  019D                     	;# 
  1045  019D                     	;# 
  1046  019E                     	;# 
  1047  019E                     	;# 
  1048  019E                     	;# 
  1049  019F                     	;# 
  1050  019F                     	;# 
  1051  019F                     	;# 
  1052  019F                     	;# 
  1053  019F                     	;# 
  1054  020C                     	;# 
  1055  020D                     	;# 
  1056  020E                     	;# 
  1057  0211                     	;# 
  1058  0211                     	;# 
  1059  0212                     	;# 
  1060  0212                     	;# 
  1061  0213                     	;# 
  1062  0213                     	;# 
  1063  0214                     	;# 
  1064  0214                     	;# 
  1065  0215                     	;# 
  1066  0215                     	;# 
  1067  0215                     	;# 
  1068  0215                     	;# 
  1069  0216                     	;# 
  1070  0216                     	;# 
  1071  0217                     	;# 
  1072  0217                     	;# 
  1073  028C                     	;# 
  1074  028D                     	;# 
  1075  028E                     	;# 
  1076  0291                     	;# 
  1077  0291                     	;# 
  1078  0292                     	;# 
  1079  0293                     	;# 
  1080  0294                     	;# 
  1081  0298                     	;# 
  1082  0298                     	;# 
  1083  0299                     	;# 
  1084  029A                     	;# 
  1085  029B                     	;# 
  1086  029E                     	;# 
  1087  030C                     	;# 
  1088  030D                     	;# 
  1089  030E                     	;# 
  1090  038C                     	;# 
  1091  038D                     	;# 
  1092  038E                     	;# 
  1093  0391                     	;# 
  1094  0392                     	;# 
  1095  0393                     	;# 
  1096  0394                     	;# 
  1097  0395                     	;# 
  1098  0396                     	;# 
  1099  0397                     	;# 
  1100  0398                     	;# 
  1101  0399                     	;# 
  1102  040E                     	;# 
  1103  0413                     	;# 
  1104  0413                     	;# 
  1105  0414                     	;# 
  1106  0414                     	;# 
  1107  0415                     	;# 
  1108  0416                     	;# 
  1109  0417                     	;# 
  1110  0418                     	;# 
  1111  041A                     	;# 
  1112  041A                     	;# 
  1113  041B                     	;# 
  1114  041B                     	;# 
  1115  041C                     	;# 
  1116  041D                     	;# 
  1117  041E                     	;# 
  1118  041F                     	;# 
  1119  0493                     	;# 
  1120  0494                     	;# 
  1121  0495                     	;# 
  1122  0496                     	;# 
  1123  049A                     	;# 
  1124  049B                     	;# 
  1125  049C                     	;# 
  1126  049D                     	;# 
  1127  058C                     	;# 
  1128  058C                     	;# 
  1129  058D                     	;# 
  1130  058E                     	;# 
  1131  058E                     	;# 
  1132  058F                     	;# 
  1133  0590                     	;# 
  1134  0590                     	;# 
  1135  0591                     	;# 
  1136  0592                     	;# 
  1137  0592                     	;# 
  1138  0593                     	;# 
  1139  0594                     	;# 
  1140  0594                     	;# 
  1141  0595                     	;# 
  1142  0596                     	;# 
  1143  0596                     	;# 
  1144  0597                     	;# 
  1145  0598                     	;# 
  1146  0599                     	;# 
  1147  059A                     	;# 
  1148  059B                     	;# 
  1149  059B                     	;# 
  1150  059C                     	;# 
  1151  059D                     	;# 
  1152  060C                     	;# 
  1153  060C                     	;# 
  1154  060D                     	;# 
  1155  060E                     	;# 
  1156  060F                     	;# 
  1157  060F                     	;# 
  1158  0610                     	;# 
  1159  0611                     	;# 
  1160  0612                     	;# 
  1161  0613                     	;# 
  1162  0614                     	;# 
  1163  0617                     	;# 
  1164  0617                     	;# 
  1165  0618                     	;# 
  1166  0619                     	;# 
  1167  061A                     	;# 
  1168  061A                     	;# 
  1169  061B                     	;# 
  1170  061C                     	;# 
  1171  0691                     	;# 
  1172  0692                     	;# 
  1173  0693                     	;# 
  1174  0694                     	;# 
  1175  0695                     	;# 
  1176  0696                     	;# 
  1177  0697                     	;# 
  1178  0699                     	;# 
  1179  069A                     	;# 
  1180  0711                     	;# 
  1181  0712                     	;# 
  1182  0713                     	;# 
  1183  0714                     	;# 
  1184  0715                     	;# 
  1185  0718                     	;# 
  1186  0718                     	;# 
  1187  0719                     	;# 
  1188  071A                     	;# 
  1189  071A                     	;# 
  1190  071B                     	;# 
  1191  071C                     	;# 
  1192  071D                     	;# 
  1193  0791                     	;# 
  1194  0791                     	;# 
  1195  0792                     	;# 
  1196  0793                     	;# 
  1197  0793                     	;# 
  1198  0794                     	;# 
  1199  0795                     	;# 
  1200  0795                     	;# 
  1201  0796                     	;# 
  1202  0797                     	;# 
  1203  0797                     	;# 
  1204  0798                     	;# 
  1205  0799                     	;# 
  1206  079A                     	;# 
  1207  080C                     	;# 
  1208  080C                     	;# 
  1209  080D                     	;# 
  1210  080E                     	;# 
  1211  080E                     	;# 
  1212  080F                     	;# 
  1213  0810                     	;# 
  1214  0810                     	;# 
  1215  0811                     	;# 
  1216  0812                     	;# 
  1217  0812                     	;# 
  1218  0813                     	;# 
  1219  0814                     	;# 
  1220  0815                     	;# 
  1221  0816                     	;# 
  1222  0817                     	;# 
  1223  0818                     	;# 
  1224  0819                     	;# 
  1225  081A                     	;# 
  1226  081A                     	;# 
  1227  081B                     	;# 
  1228  081C                     	;# 
  1229  081C                     	;# 
  1230  081D                     	;# 
  1231  088C                     	;# 
  1232  088D                     	;# 
  1233  088E                     	;# 
  1234  088F                     	;# 
  1235  088F                     	;# 
  1236  0890                     	;# 
  1237  0891                     	;# 
  1238  0892                     	;# 
  1239  0893                     	;# 
  1240  0893                     	;# 
  1241  0894                     	;# 
  1242  0895                     	;# 
  1243  0896                     	;# 
  1244  0897                     	;# 
  1245  0897                     	;# 
  1246  0898                     	;# 
  1247  0899                     	;# 
  1248  0D8C                     	;# 
  1249  0D8C                     	;# 
  1250  0D8D                     	;# 
  1251  0D8E                     	;# 
  1252  0D8F                     	;# 
  1253  0D8F                     	;# 
  1254  0D90                     	;# 
  1255  0D91                     	;# 
  1256  0D92                     	;# 
  1257  0D92                     	;# 
  1258  0D93                     	;# 
  1259  0D94                     	;# 
  1260  0D95                     	;# 
  1261  0D95                     	;# 
  1262  0D96                     	;# 
  1263  0D97                     	;# 
  1264  0D98                     	;# 
  1265  0D99                     	;# 
  1266  0D9A                     	;# 
  1267  0D9B                     	;# 
  1268  0D9C                     	;# 
  1269  0D9D                     	;# 
  1270  0D9E                     	;# 
  1271  0D9E                     	;# 
  1272  0D9F                     	;# 
  1273  0DA0                     	;# 
  1274  0DA1                     	;# 
  1275  0DA1                     	;# 
  1276  0DA2                     	;# 
  1277  0DA3                     	;# 
  1278  0DA4                     	;# 
  1279  0DA4                     	;# 
  1280  0DA5                     	;# 
  1281  0DA6                     	;# 
  1282  0DA7                     	;# 
  1283  0DA7                     	;# 
  1284  0DA8                     	;# 
  1285  0DA9                     	;# 
  1286  0DAA                     	;# 
  1287  0DAB                     	;# 
  1288  0DAC                     	;# 
  1289  0DAD                     	;# 
  1290  0DAE                     	;# 
  1291  0DAF                     	;# 
  1292  0E0F                     	;# 
  1293  0E10                     	;# 
  1294  0E11                     	;# 
  1295  0E12                     	;# 
  1296  0E13                     	;# 
  1297  0E14                     	;# 
  1298  0E15                     	;# 
  1299  0E16                     	;# 
  1300  0E17                     	;# 
  1301  0E18                     	;# 
  1302  0E19                     	;# 
  1303  0E1A                     	;# 
  1304  0E1B                     	;# 
  1305  0E1C                     	;# 
  1306  0E1D                     	;# 
  1307  0E1E                     	;# 
  1308  0E1F                     	;# 
  1309  0E20                     	;# 
  1310  0E21                     	;# 
  1311  0E22                     	;# 
  1312  0E23                     	;# 
  1313  0E24                     	;# 
  1314  0E25                     	;# 
  1315  0E26                     	;# 
  1316  0E27                     	;# 
  1317  0E28                     	;# 
  1318  0E29                     	;# 
  1319  0E2A                     	;# 
  1320  0E2B                     	;# 
  1321  0E2C                     	;# 
  1322  0E2D                     	;# 
  1323  0E2E                     	;# 
  1324  0E90                     	;# 
  1325  0E91                     	;# 
  1326  0E92                     	;# 
  1327  0E94                     	;# 
  1328  0E95                     	;# 
  1329  0E9C                     	;# 
  1330  0E9D                     	;# 
  1331  0E9E                     	;# 
  1332  0E9F                     	;# 
  1333  0EA0                     	;# 
  1334  0EA1                     	;# 
  1335  0EA2                     	;# 
  1336  0EA3                     	;# 
  1337  0EA4                     	;# 
  1338  0EA5                     	;# 
  1339  0EA6                     	;# 
  1340  0EA7                     	;# 
  1341  0F0F                     	;# 
  1342  0F10                     	;# 
  1343  0F11                     	;# 
  1344  0F12                     	;# 
  1345  0F13                     	;# 
  1346  0F14                     	;# 
  1347  0F15                     	;# 
  1348  0F16                     	;# 
  1349  0F17                     	;# 
  1350  0F18                     	;# 
  1351  0F19                     	;# 
  1352  0F1A                     	;# 
  1353  0F1B                     	;# 
  1354  0F1C                     	;# 
  1355  0F1D                     	;# 
  1356  0F1E                     	;# 
  1357  0F1F                     	;# 
  1358  0F20                     	;# 
  1359  0F21                     	;# 
  1360  0F22                     	;# 
  1361  0F23                     	;# 
  1362  0F24                     	;# 
  1363  0F25                     	;# 
  1364  0F26                     	;# 
  1365  0F27                     	;# 
  1366  0F28                     	;# 
  1367  0F29                     	;# 
  1368  0F2A                     	;# 
  1369  0F2B                     	;# 
  1370  0F2C                     	;# 
  1371  0F2D                     	;# 
  1372  0F2E                     	;# 
  1373  0F2F                     	;# 
  1374  0F30                     	;# 
  1375  0F31                     	;# 
  1376  0F32                     	;# 
  1377  0F33                     	;# 
  1378  0F34                     	;# 
  1379  0F35                     	;# 
  1380  0F36                     	;# 
  1381  0F37                     	;# 
  1382  0FE4                     	;# 
  1383  0FE5                     	;# 
  1384  0FE6                     	;# 
  1385  0FE7                     	;# 
  1386  0FE8                     	;# 
  1387  0FE9                     	;# 
  1388  0FEA                     	;# 
  1389  0FEB                     	;# 
  1390  0FED                     	;# 
  1391  0FEE                     	;# 
  1392  0FEF                     	;# 
  1393  0000                     	;# 
  1394  0001                     	;# 
  1395  0002                     	;# 
  1396  0003                     	;# 
  1397  0004                     	;# 
  1398  0005                     	;# 
  1399  0006                     	;# 
  1400  0007                     	;# 
  1401  0008                     	;# 
  1402  0009                     	;# 
  1403  000A                     	;# 
  1404  000B                     	;# 
  1405  000C                     	;# 
  1406  000D                     	;# 
  1407  000E                     	;# 
  1408  0010                     	;# 
  1409  0011                     	;# 
  1410  0012                     	;# 
  1411  0013                     	;# 
  1412  0014                     	;# 
  1413  0015                     	;# 
  1414  0016                     	;# 
  1415  0016                     	;# 
  1416  0017                     	;# 
  1417  0018                     	;# 
  1418  0019                     	;# 
  1419  001A                     	;# 
  1420  001A                     	;# 
  1421  001B                     	;# 
  1422  001B                     	;# 
  1423  001C                     	;# 
  1424  001D                     	;# 
  1425  001E                     	;# 
  1426  001F                     	;# 
  1427  008C                     	;# 
  1428  008D                     	;# 
  1429  008E                     	;# 
  1430  0090                     	;# 
  1431  0091                     	;# 
  1432  0092                     	;# 
  1433  0093                     	;# 
  1434  0094                     	;# 
  1435  0095                     	;# 
  1436  0096                     	;# 
  1437  0098                     	;# 
  1438  0099                     	;# 
  1439  009A                     	;# 
  1440  009B                     	;# 
  1441  009B                     	;# 
  1442  009C                     	;# 
  1443  009D                     	;# 
  1444  009E                     	;# 
  1445  009F                     	;# 
  1446  010C                     	;# 
  1447  010D                     	;# 
  1448  010E                     	;# 
  1449  0111                     	;# 
  1450  0112                     	;# 
  1451  0113                     	;# 
  1452  0114                     	;# 
  1453  0115                     	;# 
  1454  0116                     	;# 
  1455  0117                     	;# 
  1456  0118                     	;# 
  1457  0119                     	;# 
  1458  011C                     	;# 
  1459  018C                     	;# 
  1460  018D                     	;# 
  1461  018E                     	;# 
  1462  0191                     	;# 
  1463  0191                     	;# 
  1464  0192                     	;# 
  1465  0193                     	;# 
  1466  0193                     	;# 
  1467  0194                     	;# 
  1468  0195                     	;# 
  1469  0196                     	;# 
  1470  0197                     	;# 
  1471  0199                     	;# 
  1472  0199                     	;# 
  1473  0199                     	;# 
  1474  019A                     	;# 
  1475  019A                     	;# 
  1476  019A                     	;# 
  1477  019B                     	;# 
  1478  019B                     	;# 
  1479  019B                     	;# 
  1480  019B                     	;# 
  1481  019B                     	;# 
  1482  019C                     	;# 
  1483  019C                     	;# 
  1484  019C                     	;# 
  1485  019D                     	;# 
  1486  019D                     	;# 
  1487  019D                     	;# 
  1488  019E                     	;# 
  1489  019E                     	;# 
  1490  019E                     	;# 
  1491  019F                     	;# 
  1492  019F                     	;# 
  1493  019F                     	;# 
  1494  019F                     	;# 
  1495  019F                     	;# 
  1496  020C                     	;# 
  1497  020D                     	;# 
  1498  020E                     	;# 
  1499  0211                     	;# 
  1500  0211                     	;# 
  1501  0212                     	;# 
  1502  0212                     	;# 
  1503  0213                     	;# 
  1504  0213                     	;# 
  1505  0214                     	;# 
  1506  0214                     	;# 
  1507  0215                     	;# 
  1508  0215                     	;# 
  1509  0215                     	;# 
  1510  0215                     	;# 
  1511  0216                     	;# 
  1512  0216                     	;# 
  1513  0217                     	;# 
  1514  0217                     	;# 
  1515  028C                     	;# 
  1516  028D                     	;# 
  1517  028E                     	;# 
  1518  0291                     	;# 
  1519  0291                     	;# 
  1520  0292                     	;# 
  1521  0293                     	;# 
  1522  0294                     	;# 
  1523  0298                     	;# 
  1524  0298                     	;# 
  1525  0299                     	;# 
  1526  029A                     	;# 
  1527  029B                     	;# 
  1528  029E                     	;# 
  1529  030C                     	;# 
  1530  030D                     	;# 
  1531  030E                     	;# 
  1532  038C                     	;# 
  1533  038D                     	;# 
  1534  038E                     	;# 
  1535  0391                     	;# 
  1536  0392                     	;# 
  1537  0393                     	;# 
  1538  0394                     	;# 
  1539  0395                     	;# 
  1540  0396                     	;# 
  1541  0397                     	;# 
  1542  0398                     	;# 
  1543  0399                     	;# 
  1544  040E                     	;# 
  1545  0413                     	;# 
  1546  0413                     	;# 
  1547  0414                     	;# 
  1548  0414                     	;# 
  1549  0415                     	;# 
  1550  0416                     	;# 
  1551  0417                     	;# 
  1552  0418                     	;# 
  1553  041A                     	;# 
  1554  041A                     	;# 
  1555  041B                     	;# 
  1556  041B                     	;# 
  1557  041C                     	;# 
  1558  041D                     	;# 
  1559  041E                     	;# 
  1560  041F                     	;# 
  1561  0493                     	;# 
  1562  0494                     	;# 
  1563  0495                     	;# 
  1564  0496                     	;# 
  1565  049A                     	;# 
  1566  049B                     	;# 
  1567  049C                     	;# 
  1568  049D                     	;# 
  1569  058C                     	;# 
  1570  058C                     	;# 
  1571  058D                     	;# 
  1572  058E                     	;# 
  1573  058E                     	;# 
  1574  058F                     	;# 
  1575  0590                     	;# 
  1576  0590                     	;# 
  1577  0591                     	;# 
  1578  0592                     	;# 
  1579  0592                     	;# 
  1580  0593                     	;# 
  1581  0594                     	;# 
  1582  0594                     	;# 
  1583  0595                     	;# 
  1584  0596                     	;# 
  1585  0596                     	;# 
  1586  0597                     	;# 
  1587  0598                     	;# 
  1588  0599                     	;# 
  1589  059A                     	;# 
  1590  059B                     	;# 
  1591  059B                     	;# 
  1592  059C                     	;# 
  1593  059D                     	;# 
  1594  060C                     	;# 
  1595  060C                     	;# 
  1596  060D                     	;# 
  1597  060E                     	;# 
  1598  060F                     	;# 
  1599  060F                     	;# 
  1600  0610                     	;# 
  1601  0611                     	;# 
  1602  0612                     	;# 
  1603  0613                     	;# 
  1604  0614                     	;# 
  1605  0617                     	;# 
  1606  0617                     	;# 
  1607  0618                     	;# 
  1608  0619                     	;# 
  1609  061A                     	;# 
  1610  061A                     	;# 
  1611  061B                     	;# 
  1612  061C                     	;# 
  1613  0691                     	;# 
  1614  0692                     	;# 
  1615  0693                     	;# 
  1616  0694                     	;# 
  1617  0695                     	;# 
  1618  0696                     	;# 
  1619  0697                     	;# 
  1620  0699                     	;# 
  1621  069A                     	;# 
  1622  0711                     	;# 
  1623  0712                     	;# 
  1624  0713                     	;# 
  1625  0714                     	;# 
  1626  0715                     	;# 
  1627  0718                     	;# 
  1628  0718                     	;# 
  1629  0719                     	;# 
  1630  071A                     	;# 
  1631  071A                     	;# 
  1632  071B                     	;# 
  1633  071C                     	;# 
  1634  071D                     	;# 
  1635  0791                     	;# 
  1636  0791                     	;# 
  1637  0792                     	;# 
  1638  0793                     	;# 
  1639  0793                     	;# 
  1640  0794                     	;# 
  1641  0795                     	;# 
  1642  0795                     	;# 
  1643  0796                     	;# 
  1644  0797                     	;# 
  1645  0797                     	;# 
  1646  0798                     	;# 
  1647  0799                     	;# 
  1648  079A                     	;# 
  1649  080C                     	;# 
  1650  080C                     	;# 
  1651  080D                     	;# 
  1652  080E                     	;# 
  1653  080E                     	;# 
  1654  080F                     	;# 
  1655  0810                     	;# 
  1656  0810                     	;# 
  1657  0811                     	;# 
  1658  0812                     	;# 
  1659  0812                     	;# 
  1660  0813                     	;# 
  1661  0814                     	;# 
  1662  0815                     	;# 
  1663  0816                     	;# 
  1664  0817                     	;# 
  1665  0818                     	;# 
  1666  0819                     	;# 
  1667  081A                     	;# 
  1668  081A                     	;# 
  1669  081B                     	;# 
  1670  081C                     	;# 
  1671  081C                     	;# 
  1672  081D                     	;# 
  1673  088C                     	;# 
  1674  088D                     	;# 
  1675  088E                     	;# 
  1676  088F                     	;# 
  1677  088F                     	;# 
  1678  0890                     	;# 
  1679  0891                     	;# 
  1680  0892                     	;# 
  1681  0893                     	;# 
  1682  0893                     	;# 
  1683  0894                     	;# 
  1684  0895                     	;# 
  1685  0896                     	;# 
  1686  0897                     	;# 
  1687  0897                     	;# 
  1688  0898                     	;# 
  1689  0899                     	;# 
  1690  0D8C                     	;# 
  1691  0D8C                     	;# 
  1692  0D8D                     	;# 
  1693  0D8E                     	;# 
  1694  0D8F                     	;# 
  1695  0D8F                     	;# 
  1696  0D90                     	;# 
  1697  0D91                     	;# 
  1698  0D92                     	;# 
  1699  0D92                     	;# 
  1700  0D93                     	;# 
  1701  0D94                     	;# 
  1702  0D95                     	;# 
  1703  0D95                     	;# 
  1704  0D96                     	;# 
  1705  0D97                     	;# 
  1706  0D98                     	;# 
  1707  0D99                     	;# 
  1708  0D9A                     	;# 
  1709  0D9B                     	;# 
  1710  0D9C                     	;# 
  1711  0D9D                     	;# 
  1712  0D9E                     	;# 
  1713  0D9E                     	;# 
  1714  0D9F                     	;# 
  1715  0DA0                     	;# 
  1716  0DA1                     	;# 
  1717  0DA1                     	;# 
  1718  0DA2                     	;# 
  1719  0DA3                     	;# 
  1720  0DA4                     	;# 
  1721  0DA4                     	;# 
  1722  0DA5                     	;# 
  1723  0DA6                     	;# 
  1724  0DA7                     	;# 
  1725  0DA7                     	;# 
  1726  0DA8                     	;# 
  1727  0DA9                     	;# 
  1728  0DAA                     	;# 
  1729  0DAB                     	;# 
  1730  0DAC                     	;# 
  1731  0DAD                     	;# 
  1732  0DAE                     	;# 
  1733  0DAF                     	;# 
  1734  0E0F                     	;# 
  1735  0E10                     	;# 
  1736  0E11                     	;# 
  1737  0E12                     	;# 
  1738  0E13                     	;# 
  1739  0E14                     	;# 
  1740  0E15                     	;# 
  1741  0E16                     	;# 
  1742  0E17                     	;# 
  1743  0E18                     	;# 
  1744  0E19                     	;# 
  1745  0E1A                     	;# 
  1746  0E1B                     	;# 
  1747  0E1C                     	;# 
  1748  0E1D                     	;# 
  1749  0E1E                     	;# 
  1750  0E1F                     	;# 
  1751  0E20                     	;# 
  1752  0E21                     	;# 
  1753  0E22                     	;# 
  1754  0E23                     	;# 
  1755  0E24                     	;# 
  1756  0E25                     	;# 
  1757  0E26                     	;# 
  1758  0E27                     	;# 
  1759  0E28                     	;# 
  1760  0E29                     	;# 
  1761  0E2A                     	;# 
  1762  0E2B                     	;# 
  1763  0E2C                     	;# 
  1764  0E2D                     	;# 
  1765  0E2E                     	;# 
  1766  0E90                     	;# 
  1767  0E91                     	;# 
  1768  0E92                     	;# 
  1769  0E94                     	;# 
  1770  0E95                     	;# 
  1771  0E9C                     	;# 
  1772  0E9D                     	;# 
  1773  0E9E                     	;# 
  1774  0E9F                     	;# 
  1775  0EA0                     	;# 
  1776  0EA1                     	;# 
  1777  0EA2                     	;# 
  1778  0EA3                     	;# 
  1779  0EA4                     	;# 
  1780  0EA5                     	;# 
  1781  0EA6                     	;# 
  1782  0EA7                     	;# 
  1783  0F0F                     	;# 
  1784  0F10                     	;# 
  1785  0F11                     	;# 
  1786  0F12                     	;# 
  1787  0F13                     	;# 
  1788  0F14                     	;# 
  1789  0F15                     	;# 
  1790  0F16                     	;# 
  1791  0F17                     	;# 
  1792  0F18                     	;# 
  1793  0F19                     	;# 
  1794  0F1A                     	;# 
  1795  0F1B                     	;# 
  1796  0F1C                     	;# 
  1797  0F1D                     	;# 
  1798  0F1E                     	;# 
  1799  0F1F                     	;# 
  1800  0F20                     	;# 
  1801  0F21                     	;# 
  1802  0F22                     	;# 
  1803  0F23                     	;# 
  1804  0F24                     	;# 
  1805  0F25                     	;# 
  1806  0F26                     	;# 
  1807  0F27                     	;# 
  1808  0F28                     	;# 
  1809  0F29                     	;# 
  1810  0F2A                     	;# 
  1811  0F2B                     	;# 
  1812  0F2C                     	;# 
  1813  0F2D                     	;# 
  1814  0F2E                     	;# 
  1815  0F2F                     	;# 
  1816  0F30                     	;# 
  1817  0F31                     	;# 
  1818  0F32                     	;# 
  1819  0F33                     	;# 
  1820  0F34                     	;# 
  1821  0F35                     	;# 
  1822  0F36                     	;# 
  1823  0F37                     	;# 
  1824  0FE4                     	;# 
  1825  0FE5                     	;# 
  1826  0FE6                     	;# 
  1827  0FE7                     	;# 
  1828  0FE8                     	;# 
  1829  0FE9                     	;# 
  1830  0FEA                     	;# 
  1831  0FEB                     	;# 
  1832  0FED                     	;# 
  1833  0FEE                     	;# 
  1834  0FEF                     	;# 
  1835  0000                     	;# 
  1836  0001                     	;# 
  1837  0002                     	;# 
  1838  0003                     	;# 
  1839  0004                     	;# 
  1840  0005                     	;# 
  1841  0006                     	;# 
  1842  0007                     	;# 
  1843  0008                     	;# 
  1844  0009                     	;# 
  1845  000A                     	;# 
  1846  000B                     	;# 
  1847  000C                     	;# 
  1848  000D                     	;# 
  1849  000E                     	;# 
  1850  0010                     	;# 
  1851  0011                     	;# 
  1852  0012                     	;# 
  1853  0013                     	;# 
  1854  0014                     	;# 
  1855  0015                     	;# 
  1856  0016                     	;# 
  1857  0016                     	;# 
  1858  0017                     	;# 
  1859  0018                     	;# 
  1860  0019                     	;# 
  1861  001A                     	;# 
  1862  001A                     	;# 
  1863  001B                     	;# 
  1864  001B                     	;# 
  1865  001C                     	;# 
  1866  001D                     	;# 
  1867  001E                     	;# 
  1868  001F                     	;# 
  1869  008C                     	;# 
  1870  008D                     	;# 
  1871  008E                     	;# 
  1872  0090                     	;# 
  1873  0091                     	;# 
  1874  0092                     	;# 
  1875  0093                     	;# 
  1876  0094                     	;# 
  1877  0095                     	;# 
  1878  0096                     	;# 
  1879  0098                     	;# 
  1880  0099                     	;# 
  1881  009A                     	;# 
  1882  009B                     	;# 
  1883  009B                     	;# 
  1884  009C                     	;# 
  1885  009D                     	;# 
  1886  009E                     	;# 
  1887  009F                     	;# 
  1888  010C                     	;# 
  1889  010D                     	;# 
  1890  010E                     	;# 
  1891  0111                     	;# 
  1892  0112                     	;# 
  1893  0113                     	;# 
  1894  0114                     	;# 
  1895  0115                     	;# 
  1896  0116                     	;# 
  1897  0117                     	;# 
  1898  0118                     	;# 
  1899  0119                     	;# 
  1900  011C                     	;# 
  1901  018C                     	;# 
  1902  018D                     	;# 
  1903  018E                     	;# 
  1904  0191                     	;# 
  1905  0191                     	;# 
  1906  0192                     	;# 
  1907  0193                     	;# 
  1908  0193                     	;# 
  1909  0194                     	;# 
  1910  0195                     	;# 
  1911  0196                     	;# 
  1912  0197                     	;# 
  1913  0199                     	;# 
  1914  0199                     	;# 
  1915  0199                     	;# 
  1916  019A                     	;# 
  1917  019A                     	;# 
  1918  019A                     	;# 
  1919  019B                     	;# 
  1920  019B                     	;# 
  1921  019B                     	;# 
  1922  019B                     	;# 
  1923  019B                     	;# 
  1924  019C                     	;# 
  1925  019C                     	;# 
  1926  019C                     	;# 
  1927  019D                     	;# 
  1928  019D                     	;# 
  1929  019D                     	;# 
  1930  019E                     	;# 
  1931  019E                     	;# 
  1932  019E                     	;# 
  1933  019F                     	;# 
  1934  019F                     	;# 
  1935  019F                     	;# 
  1936  019F                     	;# 
  1937  019F                     	;# 
  1938  020C                     	;# 
  1939  020D                     	;# 
  1940  020E                     	;# 
  1941  0211                     	;# 
  1942  0211                     	;# 
  1943  0212                     	;# 
  1944  0212                     	;# 
  1945  0213                     	;# 
  1946  0213                     	;# 
  1947  0214                     	;# 
  1948  0214                     	;# 
  1949  0215                     	;# 
  1950  0215                     	;# 
  1951  0215                     	;# 
  1952  0215                     	;# 
  1953  0216                     	;# 
  1954  0216                     	;# 
  1955  0217                     	;# 
  1956  0217                     	;# 
  1957  028C                     	;# 
  1958  028D                     	;# 
  1959  028E                     	;# 
  1960  0291                     	;# 
  1961  0291                     	;# 
  1962  0292                     	;# 
  1963  0293                     	;# 
  1964  0294                     	;# 
  1965  0298                     	;# 
  1966  0298                     	;# 
  1967  0299                     	;# 
  1968  029A                     	;# 
  1969  029B                     	;# 
  1970  029E                     	;# 
  1971  030C                     	;# 
  1972  030D                     	;# 
  1973  030E                     	;# 
  1974  038C                     	;# 
  1975  038D                     	;# 
  1976  038E                     	;# 
  1977  0391                     	;# 
  1978  0392                     	;# 
  1979  0393                     	;# 
  1980  0394                     	;# 
  1981  0395                     	;# 
  1982  0396                     	;# 
  1983  0397                     	;# 
  1984  0398                     	;# 
  1985  0399                     	;# 
  1986  040E                     	;# 
  1987  0413                     	;# 
  1988  0413                     	;# 
  1989  0414                     	;# 
  1990  0414                     	;# 
  1991  0415                     	;# 
  1992  0416                     	;# 
  1993  0417                     	;# 
  1994  0418                     	;# 
  1995  041A                     	;# 
  1996  041A                     	;# 
  1997  041B                     	;# 
  1998  041B                     	;# 
  1999  041C                     	;# 
  2000  041D                     	;# 
  2001  041E                     	;# 
  2002  041F                     	;# 
  2003  0493                     	;# 
  2004  0494                     	;# 
  2005  0495                     	;# 
  2006  0496                     	;# 
  2007  049A                     	;# 
  2008  049B                     	;# 
  2009  049C                     	;# 
  2010  049D                     	;# 
  2011  058C                     	;# 
  2012  058C                     	;# 
  2013  058D                     	;# 
  2014  058E                     	;# 
  2015  058E                     	;# 
  2016  058F                     	;# 
  2017  0590                     	;# 
  2018  0590                     	;# 
  2019  0591                     	;# 
  2020  0592                     	;# 
  2021  0592                     	;# 
  2022  0593                     	;# 
  2023  0594                     	;# 
  2024  0594                     	;# 
  2025  0595                     	;# 
  2026  0596                     	;# 
  2027  0596                     	;# 
  2028  0597                     	;# 
  2029  0598                     	;# 
  2030  0599                     	;# 
  2031  059A                     	;# 
  2032  059B                     	;# 
  2033  059B                     	;# 
  2034  059C                     	;# 
  2035  059D                     	;# 
  2036  060C                     	;# 
  2037  060C                     	;# 
  2038  060D                     	;# 
  2039  060E                     	;# 
  2040  060F                     	;# 
  2041  060F                     	;# 
  2042  0610                     	;# 
  2043  0611                     	;# 
  2044  0612                     	;# 
  2045  0613                     	;# 
  2046  0614                     	;# 
  2047  0617                     	;# 
  2048  0617                     	;# 
  2049  0618                     	;# 
  2050  0619                     	;# 
  2051  061A                     	;# 
  2052  061A                     	;# 
  2053  061B                     	;# 
  2054  061C                     	;# 
  2055  0691                     	;# 
  2056  0692                     	;# 
  2057  0693                     	;# 
  2058  0694                     	;# 
  2059  0695                     	;# 
  2060  0696                     	;# 
  2061  0697                     	;# 
  2062  0699                     	;# 
  2063  069A                     	;# 
  2064  0711                     	;# 
  2065  0712                     	;# 
  2066  0713                     	;# 
  2067  0714                     	;# 
  2068  0715                     	;# 
  2069  0718                     	;# 
  2070  0718                     	;# 
  2071  0719                     	;# 
  2072  071A                     	;# 
  2073  071A                     	;# 
  2074  071B                     	;# 
  2075  071C                     	;# 
  2076  071D                     	;# 
  2077  0791                     	;# 
  2078  0791                     	;# 
  2079  0792                     	;# 
  2080  0793                     	;# 
  2081  0793                     	;# 
  2082  0794                     	;# 
  2083  0795                     	;# 
  2084  0795                     	;# 
  2085  0796                     	;# 
  2086  0797                     	;# 
  2087  0797                     	;# 
  2088  0798                     	;# 
  2089  0799                     	;# 
  2090  079A                     	;# 
  2091  080C                     	;# 
  2092  080C                     	;# 
  2093  080D                     	;# 
  2094  080E                     	;# 
  2095  080E                     	;# 
  2096  080F                     	;# 
  2097  0810                     	;# 
  2098  0810                     	;# 
  2099  0811                     	;# 
  2100  0812                     	;# 
  2101  0812                     	;# 
  2102  0813                     	;# 
  2103  0814                     	;# 
  2104  0815                     	;# 
  2105  0816                     	;# 
  2106  0817                     	;# 
  2107  0818                     	;# 
  2108  0819                     	;# 
  2109  081A                     	;# 
  2110  081A                     	;# 
  2111  081B                     	;# 
  2112  081C                     	;# 
  2113  081C                     	;# 
  2114  081D                     	;# 
  2115  088C                     	;# 
  2116  088D                     	;# 
  2117  088E                     	;# 
  2118  088F                     	;# 
  2119  088F                     	;# 
  2120  0890                     	;# 
  2121  0891                     	;# 
  2122  0892                     	;# 
  2123  0893                     	;# 
  2124  0893                     	;# 
  2125  0894                     	;# 
  2126  0895                     	;# 
  2127  0896                     	;# 
  2128  0897                     	;# 
  2129  0897                     	;# 
  2130  0898                     	;# 
  2131  0899                     	;# 
  2132  0D8C                     	;# 
  2133  0D8C                     	;# 
  2134  0D8D                     	;# 
  2135  0D8E                     	;# 
  2136  0D8F                     	;# 
  2137  0D8F                     	;# 
  2138  0D90                     	;# 
  2139  0D91                     	;# 
  2140  0D92                     	;# 
  2141  0D92                     	;# 
  2142  0D93                     	;# 
  2143  0D94                     	;# 
  2144  0D95                     	;# 
  2145  0D95                     	;# 
  2146  0D96                     	;# 
  2147  0D97                     	;# 
  2148  0D98                     	;# 
  2149  0D99                     	;# 
  2150  0D9A                     	;# 
  2151  0D9B                     	;# 
  2152  0D9C                     	;# 
  2153  0D9D                     	;# 
  2154  0D9E                     	;# 
  2155  0D9E                     	;# 
  2156  0D9F                     	;# 
  2157  0DA0                     	;# 
  2158  0DA1                     	;# 
  2159  0DA1                     	;# 
  2160  0DA2                     	;# 
  2161  0DA3                     	;# 
  2162  0DA4                     	;# 
  2163  0DA4                     	;# 
  2164  0DA5                     	;# 
  2165  0DA6                     	;# 
  2166  0DA7                     	;# 
  2167  0DA7                     	;# 
  2168  0DA8                     	;# 
  2169  0DA9                     	;# 
  2170  0DAA                     	;# 
  2171  0DAB                     	;# 
  2172  0DAC                     	;# 
  2173  0DAD                     	;# 
  2174  0DAE                     	;# 
  2175  0DAF                     	;# 
  2176  0E0F                     	;# 
  2177  0E10                     	;# 
  2178  0E11                     	;# 
  2179  0E12                     	;# 
  2180  0E13                     	;# 
  2181  0E14                     	;# 
  2182  0E15                     	;# 
  2183  0E16                     	;# 
  2184  0E17                     	;# 
  2185  0E18                     	;# 
  2186  0E19                     	;# 
  2187  0E1A                     	;# 
  2188  0E1B                     	;# 
  2189  0E1C                     	;# 
  2190  0E1D                     	;# 
  2191  0E1E                     	;# 
  2192  0E1F                     	;# 
  2193  0E20                     	;# 
  2194  0E21                     	;# 
  2195  0E22                     	;# 
  2196  0E23                     	;# 
  2197  0E24                     	;# 
  2198  0E25                     	;# 
  2199  0E26                     	;# 
  2200  0E27                     	;# 
  2201  0E28                     	;# 
  2202  0E29                     	;# 
  2203  0E2A                     	;# 
  2204  0E2B                     	;# 
  2205  0E2C                     	;# 
  2206  0E2D                     	;# 
  2207  0E2E                     	;# 
  2208  0E90                     	;# 
  2209  0E91                     	;# 
  2210  0E92                     	;# 
  2211  0E94                     	;# 
  2212  0E95                     	;# 
  2213  0E9C                     	;# 
  2214  0E9D                     	;# 
  2215  0E9E                     	;# 
  2216  0E9F                     	;# 
  2217  0EA0                     	;# 
  2218  0EA1                     	;# 
  2219  0EA2                     	;# 
  2220  0EA3                     	;# 
  2221  0EA4                     	;# 
  2222  0EA5                     	;# 
  2223  0EA6                     	;# 
  2224  0EA7                     	;# 
  2225  0F0F                     	;# 
  2226  0F10                     	;# 
  2227  0F11                     	;# 
  2228  0F12                     	;# 
  2229  0F13                     	;# 
  2230  0F14                     	;# 
  2231  0F15                     	;# 
  2232  0F16                     	;# 
  2233  0F17                     	;# 
  2234  0F18                     	;# 
  2235  0F19                     	;# 
  2236  0F1A                     	;# 
  2237  0F1B                     	;# 
  2238  0F1C                     	;# 
  2239  0F1D                     	;# 
  2240  0F1E                     	;# 
  2241  0F1F                     	;# 
  2242  0F20                     	;# 
  2243  0F21                     	;# 
  2244  0F22                     	;# 
  2245  0F23                     	;# 
  2246  0F24                     	;# 
  2247  0F25                     	;# 
  2248  0F26                     	;# 
  2249  0F27                     	;# 
  2250  0F28                     	;# 
  2251  0F29                     	;# 
  2252  0F2A                     	;# 
  2253  0F2B                     	;# 
  2254  0F2C                     	;# 
  2255  0F2D                     	;# 
  2256  0F2E                     	;# 
  2257  0F2F                     	;# 
  2258  0F30                     	;# 
  2259  0F31                     	;# 
  2260  0F32                     	;# 
  2261  0F33                     	;# 
  2262  0F34                     	;# 
  2263  0F35                     	;# 
  2264  0F36                     	;# 
  2265  0F37                     	;# 
  2266  0FE4                     	;# 
  2267  0FE5                     	;# 
  2268  0FE6                     	;# 
  2269  0FE7                     	;# 
  2270  0FE8                     	;# 
  2271  0FE9                     	;# 
  2272  0FEA                     	;# 
  2273  0FEB                     	;# 
  2274  0FED                     	;# 
  2275  0FEE                     	;# 
  2276  0FEF                     	;# 
  2277  0000                     	;# 
  2278  0001                     	;# 
  2279  0002                     	;# 
  2280  0003                     	;# 
  2281  0004                     	;# 
  2282  0005                     	;# 
  2283  0006                     	;# 
  2284  0007                     	;# 
  2285  0008                     	;# 
  2286  0009                     	;# 
  2287  000A                     	;# 
  2288  000B                     	;# 
  2289  000C                     	;# 
  2290  000D                     	;# 
  2291  000E                     	;# 
  2292  0010                     	;# 
  2293  0011                     	;# 
  2294  0012                     	;# 
  2295  0013                     	;# 
  2296  0014                     	;# 
  2297  0015                     	;# 
  2298  0016                     	;# 
  2299  0016                     	;# 
  2300  0017                     	;# 
  2301  0018                     	;# 
  2302  0019                     	;# 
  2303  001A                     	;# 
  2304  001A                     	;# 
  2305  001B                     	;# 
  2306  001B                     	;# 
  2307  001C                     	;# 
  2308  001D                     	;# 
  2309  001E                     	;# 
  2310  001F                     	;# 
  2311  008C                     	;# 
  2312  008D                     	;# 
  2313  008E                     	;# 
  2314  0090                     	;# 
  2315  0091                     	;# 
  2316  0092                     	;# 
  2317  0093                     	;# 
  2318  0094                     	;# 
  2319  0095                     	;# 
  2320  0096                     	;# 
  2321  0098                     	;# 
  2322  0099                     	;# 
  2323  009A                     	;# 
  2324  009B                     	;# 
  2325  009B                     	;# 
  2326  009C                     	;# 
  2327  009D                     	;# 
  2328  009E                     	;# 
  2329  009F                     	;# 
  2330  010C                     	;# 
  2331  010D                     	;# 
  2332  010E                     	;# 
  2333  0111                     	;# 
  2334  0112                     	;# 
  2335  0113                     	;# 
  2336  0114                     	;# 
  2337  0115                     	;# 
  2338  0116                     	;# 
  2339  0117                     	;# 
  2340  0118                     	;# 
  2341  0119                     	;# 
  2342  011C                     	;# 
  2343  018C                     	;# 
  2344  018D                     	;# 
  2345  018E                     	;# 
  2346  0191                     	;# 
  2347  0191                     	;# 
  2348  0192                     	;# 
  2349  0193                     	;# 
  2350  0193                     	;# 
  2351  0194                     	;# 
  2352  0195                     	;# 
  2353  0196                     	;# 
  2354  0197                     	;# 
  2355  0199                     	;# 
  2356  0199                     	;# 
  2357  0199                     	;# 
  2358  019A                     	;# 
  2359  019A                     	;# 
  2360  019A                     	;# 
  2361  019B                     	;# 
  2362  019B                     	;# 
  2363  019B                     	;# 
  2364  019B                     	;# 
  2365  019B                     	;# 
  2366  019C                     	;# 
  2367  019C                     	;# 
  2368  019C                     	;# 
  2369  019D                     	;# 
  2370  019D                     	;# 
  2371  019D                     	;# 
  2372  019E                     	;# 
  2373  019E                     	;# 
  2374  019E                     	;# 
  2375  019F                     	;# 
  2376  019F                     	;# 
  2377  019F                     	;# 
  2378  019F                     	;# 
  2379  019F                     	;# 
  2380  020C                     	;# 
  2381  020D                     	;# 
  2382  020E                     	;# 
  2383  0211                     	;# 
  2384  0211                     	;# 
  2385  0212                     	;# 
  2386  0212                     	;# 
  2387  0213                     	;# 
  2388  0213                     	;# 
  2389  0214                     	;# 
  2390  0214                     	;# 
  2391  0215                     	;# 
  2392  0215                     	;# 
  2393  0215                     	;# 
  2394  0215                     	;# 
  2395  0216                     	;# 
  2396  0216                     	;# 
  2397  0217                     	;# 
  2398  0217                     	;# 
  2399  028C                     	;# 
  2400  028D                     	;# 
  2401  028E                     	;# 
  2402  0291                     	;# 
  2403  0291                     	;# 
  2404  0292                     	;# 
  2405  0293                     	;# 
  2406  0294                     	;# 
  2407  0298                     	;# 
  2408  0298                     	;# 
  2409  0299                     	;# 
  2410  029A                     	;# 
  2411  029B                     	;# 
  2412  029E                     	;# 
  2413  030C                     	;# 
  2414  030D                     	;# 
  2415  030E                     	;# 
  2416  038C                     	;# 
  2417  038D                     	;# 
  2418  038E                     	;# 
  2419  0391                     	;# 
  2420  0392                     	;# 
  2421  0393                     	;# 
  2422  0394                     	;# 
  2423  0395                     	;# 
  2424  0396                     	;# 
  2425  0397                     	;# 
  2426  0398                     	;# 
  2427  0399                     	;# 
  2428  040E                     	;# 
  2429  0413                     	;# 
  2430  0413                     	;# 
  2431  0414                     	;# 
  2432  0414                     	;# 
  2433  0415                     	;# 
  2434  0416                     	;# 
  2435  0417                     	;# 
  2436  0418                     	;# 
  2437  041A                     	;# 
  2438  041A                     	;# 
  2439  041B                     	;# 
  2440  041B                     	;# 
  2441  041C                     	;# 
  2442  041D                     	;# 
  2443  041E                     	;# 
  2444  041F                     	;# 
  2445  0493                     	;# 
  2446  0494                     	;# 
  2447  0495                     	;# 
  2448  0496                     	;# 
  2449  049A                     	;# 
  2450  049B                     	;# 
  2451  049C                     	;# 
  2452  049D                     	;# 
  2453  058C                     	;# 
  2454  058C                     	;# 
  2455  058D                     	;# 
  2456  058E                     	;# 
  2457  058E                     	;# 
  2458  058F                     	;# 
  2459  0590                     	;# 
  2460  0590                     	;# 
  2461  0591                     	;# 
  2462  0592                     	;# 
  2463  0592                     	;# 
  2464  0593                     	;# 
  2465  0594                     	;# 
  2466  0594                     	;# 
  2467  0595                     	;# 
  2468  0596                     	;# 
  2469  0596                     	;# 
  2470  0597                     	;# 
  2471  0598                     	;# 
  2472  0599                     	;# 
  2473  059A                     	;# 
  2474  059B                     	;# 
  2475  059B                     	;# 
  2476  059C                     	;# 
  2477  059D                     	;# 
  2478  060C                     	;# 
  2479  060C                     	;# 
  2480  060D                     	;# 
  2481  060E                     	;# 
  2482  060F                     	;# 
  2483  060F                     	;# 
  2484  0610                     	;# 
  2485  0611                     	;# 
  2486  0612                     	;# 
  2487  0613                     	;# 
  2488  0614                     	;# 
  2489  0617                     	;# 
  2490  0617                     	;# 
  2491  0618                     	;# 
  2492  0619                     	;# 
  2493  061A                     	;# 
  2494  061A                     	;# 
  2495  061B                     	;# 
  2496  061C                     	;# 
  2497  0691                     	;# 
  2498  0692                     	;# 
  2499  0693                     	;# 
  2500  0694                     	;# 
  2501  0695                     	;# 
  2502  0696                     	;# 
  2503  0697                     	;# 
  2504  0699                     	;# 
  2505  069A                     	;# 
  2506  0711                     	;# 
  2507  0712                     	;# 
  2508  0713                     	;# 
  2509  0714                     	;# 
  2510  0715                     	;# 
  2511  0718                     	;# 
  2512  0718                     	;# 
  2513  0719                     	;# 
  2514  071A                     	;# 
  2515  071A                     	;# 
  2516  071B                     	;# 
  2517  071C                     	;# 
  2518  071D                     	;# 
  2519  0791                     	;# 
  2520  0791                     	;# 
  2521  0792                     	;# 
  2522  0793                     	;# 
  2523  0793                     	;# 
  2524  0794                     	;# 
  2525  0795                     	;# 
  2526  0795                     	;# 
  2527  0796                     	;# 
  2528  0797                     	;# 
  2529  0797                     	;# 
  2530  0798                     	;# 
  2531  0799                     	;# 
  2532  079A                     	;# 
  2533  080C                     	;# 
  2534  080C                     	;# 
  2535  080D                     	;# 
  2536  080E                     	;# 
  2537  080E                     	;# 
  2538  080F                     	;# 
  2539  0810                     	;# 
  2540  0810                     	;# 
  2541  0811                     	;# 
  2542  0812                     	;# 
  2543  0812                     	;# 
  2544  0813                     	;# 
  2545  0814                     	;# 
  2546  0815                     	;# 
  2547  0816                     	;# 
  2548  0817                     	;# 
  2549  0818                     	;# 
  2550  0819                     	;# 
  2551  081A                     	;# 
  2552  081A                     	;# 
  2553  081B                     	;# 
  2554  081C                     	;# 
  2555  081C                     	;# 
  2556  081D                     	;# 
  2557  088C                     	;# 
  2558  088D                     	;# 
  2559  088E                     	;# 
  2560  088F                     	;# 
  2561  088F                     	;# 
  2562  0890                     	;# 
  2563  0891                     	;# 
  2564  0892                     	;# 
  2565  0893                     	;# 
  2566  0893                     	;# 
  2567  0894                     	;# 
  2568  0895                     	;# 
  2569  0896                     	;# 
  2570  0897                     	;# 
  2571  0897                     	;# 
  2572  0898                     	;# 
  2573  0899                     	;# 
  2574  0D8C                     	;# 
  2575  0D8C                     	;# 
  2576  0D8D                     	;# 
  2577  0D8E                     	;# 
  2578  0D8F                     	;# 
  2579  0D8F                     	;# 
  2580  0D90                     	;# 
  2581  0D91                     	;# 
  2582  0D92                     	;# 
  2583  0D92                     	;# 
  2584  0D93                     	;# 
  2585  0D94                     	;# 
  2586  0D95                     	;# 
  2587  0D95                     	;# 
  2588  0D96                     	;# 
  2589  0D97                     	;# 
  2590  0D98                     	;# 
  2591  0D99                     	;# 
  2592  0D9A                     	;# 
  2593  0D9B                     	;# 
  2594  0D9C                     	;# 
  2595  0D9D                     	;# 
  2596  0D9E                     	;# 
  2597  0D9E                     	;# 
  2598  0D9F                     	;# 
  2599  0DA0                     	;# 
  2600  0DA1                     	;# 
  2601  0DA1                     	;# 
  2602  0DA2                     	;# 
  2603  0DA3                     	;# 
  2604  0DA4                     	;# 
  2605  0DA4                     	;# 
  2606  0DA5                     	;# 
  2607  0DA6                     	;# 
  2608  0DA7                     	;# 
  2609  0DA7                     	;# 
  2610  0DA8                     	;# 
  2611  0DA9                     	;# 
  2612  0DAA                     	;# 
  2613  0DAB                     	;# 
  2614  0DAC                     	;# 
  2615  0DAD                     	;# 
  2616  0DAE                     	;# 
  2617  0DAF                     	;# 
  2618  0E0F                     	;# 
  2619  0E10                     	;# 
  2620  0E11                     	;# 
  2621  0E12                     	;# 
  2622  0E13                     	;# 
  2623  0E14                     	;# 
  2624  0E15                     	;# 
  2625  0E16                     	;# 
  2626  0E17                     	;# 
  2627  0E18                     	;# 
  2628  0E19                     	;# 
  2629  0E1A                     	;# 
  2630  0E1B                     	;# 
  2631  0E1C                     	;# 
  2632  0E1D                     	;# 
  2633  0E1E                     	;# 
  2634  0E1F                     	;# 
  2635  0E20                     	;# 
  2636  0E21                     	;# 
  2637  0E22                     	;# 
  2638  0E23                     	;# 
  2639  0E24                     	;# 
  2640  0E25                     	;# 
  2641  0E26                     	;# 
  2642  0E27                     	;# 
  2643  0E28                     	;# 
  2644  0E29                     	;# 
  2645  0E2A                     	;# 
  2646  0E2B                     	;# 
  2647  0E2C                     	;# 
  2648  0E2D                     	;# 
  2649  0E2E                     	;# 
  2650  0E90                     	;# 
  2651  0E91                     	;# 
  2652  0E92                     	;# 
  2653  0E94                     	;# 
  2654  0E95                     	;# 
  2655  0E9C                     	;# 
  2656  0E9D                     	;# 
  2657  0E9E                     	;# 
  2658  0E9F                     	;# 
  2659  0EA0                     	;# 
  2660  0EA1                     	;# 
  2661  0EA2                     	;# 
  2662  0EA3                     	;# 
  2663  0EA4                     	;# 
  2664  0EA5                     	;# 
  2665  0EA6                     	;# 
  2666  0EA7                     	;# 
  2667  0F0F                     	;# 
  2668  0F10                     	;# 
  2669  0F11                     	;# 
  2670  0F12                     	;# 
  2671  0F13                     	;# 
  2672  0F14                     	;# 
  2673  0F15                     	;# 
  2674  0F16                     	;# 
  2675  0F17                     	;# 
  2676  0F18                     	;# 
  2677  0F19                     	;# 
  2678  0F1A                     	;# 
  2679  0F1B                     	;# 
  2680  0F1C                     	;# 
  2681  0F1D                     	;# 
  2682  0F1E                     	;# 
  2683  0F1F                     	;# 
  2684  0F20                     	;# 
  2685  0F21                     	;# 
  2686  0F22                     	;# 
  2687  0F23                     	;# 
  2688  0F24                     	;# 
  2689  0F25                     	;# 
  2690  0F26                     	;# 
  2691  0F27                     	;# 
  2692  0F28                     	;# 
  2693  0F29                     	;# 
  2694  0F2A                     	;# 
  2695  0F2B                     	;# 
  2696  0F2C                     	;# 
  2697  0F2D                     	;# 
  2698  0F2E                     	;# 
  2699  0F2F                     	;# 
  2700  0F30                     	;# 
  2701  0F31                     	;# 
  2702  0F32                     	;# 
  2703  0F33                     	;# 
  2704  0F34                     	;# 
  2705  0F35                     	;# 
  2706  0F36                     	;# 
  2707  0F37                     	;# 
  2708  0FE4                     	;# 
  2709  0FE5                     	;# 
  2710  0FE6                     	;# 
  2711  0FE7                     	;# 
  2712  0FE8                     	;# 
  2713  0FE9                     	;# 
  2714  0FEA                     	;# 
  2715  0FEB                     	;# 
  2716  0FED                     	;# 
  2717  0FEE                     	;# 
  2718  0FEF                     	;# 
  2719                           
  2720                           	psect	idataBANK0
  2721  04C9                     __pidataBANK0:
  2722                           
  2723                           ;initializer for main@F9980
  2724  04C9  3420               	retlw	32
  2725  04CA  3405               	retlw	5
  2726  04CB  340C               	retlw	12
  2727  04CC  3400               	retlw	0
  2728                           
  2729                           ;initializer for main@F9978
  2730  04CD  3404               	retlw	4
  2731  04CE  3402               	retlw	2
  2732  04CF  340C               	retlw	12
  2733  04D0  3400               	retlw	0
  2734                           
  2735                           	psect	stringtext1
  2736  0800                     __pstringtext1:
  2737  0800                     _segmentMap:
  2738  0800  343F               	retlw	63
  2739  0801  3406               	retlw	6
  2740  0802  345B               	retlw	91
  2741  0803  344F               	retlw	79
  2742  0804  3466               	retlw	102
  2743  0805  346D               	retlw	109
  2744  0806  347D               	retlw	125
  2745  0807  3407               	retlw	7
  2746  0808  347F               	retlw	127
  2747  0809  346F               	retlw	111
  2748  080A  3477               	retlw	119
  2749  080B  347C               	retlw	124
  2750  080C  3439               	retlw	57
  2751  080D  345E               	retlw	94
  2752  080E  3479               	retlw	121
  2753  080F  3471               	retlw	113
  2754  0810  3400               	retlw	0
  2755  0811                     __end_of_segmentMap:
  2756                           
  2757                           	psect	stringtext2
  2758  0811                     __pstringtext2:
  2759  0811                     _digitToSegment:
  2760  0811  343F               	retlw	63
  2761  0812  3406               	retlw	6
  2762  0813  345B               	retlw	91
  2763  0814  344F               	retlw	79
  2764  0815  3466               	retlw	102
  2765  0816  346D               	retlw	109
  2766  0817  347D               	retlw	125
  2767  0818  3407               	retlw	7
  2768  0819  347F               	retlw	127
  2769  081A  346F               	retlw	111
  2770  081B  3477               	retlw	119
  2771  081C  347C               	retlw	124
  2772  081D  3439               	retlw	57
  2773  081E  345E               	retlw	94
  2774  081F  3479               	retlw	121
  2775  0820  3471               	retlw	113
  2776  0821                     __end_of_digitToSegment:
  2777                           
  2778                           	psect	stringtext3
  2779  0821                     __pstringtext3:
  2780  0821                     _minusSegments:
  2781  0821  3440               	retlw	64
  2782  0822                     __end_of_minusSegments:
  2783  0098                     _OSCTUNE	set	152
  2784  0099                     _OSCCON	set	153
  2785  0095                     _OPTION_REGbits	set	149
  2786  008E                     _TRISC	set	142
  2787  008D                     _TRISB	set	141
  2788  008C                     _TRISA	set	140
  2789  010C                     _LATAbits	set	268
  2790  0116                     _BORCON	set	278
  2791  010E                     _LATC	set	270
  2792  010D                     _LATB	set	269
  2793  010C                     _LATA	set	268
  2794  018C                     _ANSELA	set	396
  2795  018D                     _ANSELB	set	397
  2796  018E                     _ANSELC	set	398
  2797  020E                     _WPUC	set	526
  2798  020C                     _WPUA	set	524
  2799  020D                     _WPUB	set	525
  2800  028E                     _ODCONC	set	654
  2801  028D                     _ODCONB	set	653
  2802  028C                     _ODCONA	set	652
  2803  030E                     _SLRCONC	set	782
  2804  030D                     _SLRCONB	set	781
  2805  030C                     _SLRCONA	set	780
  2806  038E                     _INLVLC	set	910
  2807  038D                     _INLVLB	set	909
  2808  038C                     _INLVLA	set	908
  2809                           
  2810                           	psect	cinit
  2811  07EB                     start_initialization:	
  2812                           ; #config settings
  2813                           
  2814  07EB                     __initialization:
  2815                           
  2816                           ; Initialize objects allocated to BANK0
  2817  07EB  30C9               	movlw	low __pidataBANK0
  2818  07EC  0084               	movwf	4
  2819  07ED  3084               	movlw	(high __pidataBANK0)| (0+128)
  2820  07EE  0085               	movwf	5
  2821  07EF  3038               	movlw	low __pdataBANK0
  2822  07F0  0086               	movwf	6
  2823  07F1  3000               	movlw	high __pdataBANK0
  2824  07F2  0087               	movwf	7
  2825  07F3  3008               	movlw	8
  2826  07F4  3184  24B5  3187   	fcall	init_ram
  2827                           
  2828                           ; Clear objects allocated to BANK0
  2829  07F7  01C0               	clrf	__pbssBANK0& (0+127)
  2830  07F8  01C1               	clrf	(__pbssBANK0+1)& (0+127)
  2831  07F9  01C2               	clrf	(__pbssBANK0+2)& (0+127)
  2832  07FA  01C3               	clrf	(__pbssBANK0+3)& (0+127)
  2833  07FB  01C4               	clrf	(__pbssBANK0+4)& (0+127)
  2834  07FC  01C5               	clrf	(__pbssBANK0+5)& (0+127)
  2835  07FD                     end_of_initialization:	
  2836                           ;End of C runtime variable initialization code
  2837                           
  2838  07FD                     __end_of__initialization:
  2839  07FD  0020               	movlb	0
  2840  07FE  3186  2E87         	ljmp	_main	;jump to C main() function
  2841                           
  2842                           	psect	bssBANK0
  2843  0040                     __pbssBANK0:
  2844  0040                     tm1637Init@display:
  2845  0040                     	ds	6
  2846                           
  2847                           	psect	dataBANK0
  2848  0038                     __pdataBANK0:
  2849  0038                     main@F9980:
  2850  0038                     	ds	4
  2851  003C                     main@F9978:
  2852  003C                     	ds	4
  2853                           
  2854                           	psect	inittext
  2855  04B5                     init_ram:
  2856  04B5  00FE               	movwf	btemp
  2857  04B6                     initloop:
  2858  04B6  0012               	moviw fsr0++
  2859  04B7  001E               	movwi fsr1++
  2860  04B8  0BFE               	decfsz	btemp,f
  2861  04B9  2CB6               	goto	initloop
  2862  04BA  3400               	retlw	0
  2863                           
  2864                           	psect	cstackCOMMON
  2865  0070                     __pcstackCOMMON:
  2866  0070                     ?_OSCILLATOR_Initialize:
  2867  0070                     ??_OSCILLATOR_Initialize:	
  2868                           ; 1 bytes @ 0x0
  2869                           
  2870  0070                     ?__tm1637Start:	
  2871                           ; 1 bytes @ 0x0
  2872                           
  2873  0070                     ?__tm1637ReadResult:	
  2874                           ; 1 bytes @ 0x0
  2875                           
  2876  0070                     ?__tm1637Stop:	
  2877                           ; 1 bytes @ 0x0
  2878                           
  2879  0070                     ?_PIN_MANAGER_Initialize:	
  2880                           ; 1 bytes @ 0x0
  2881                           
  2882  0070                     ??_PIN_MANAGER_Initialize:	
  2883                           ; 1 bytes @ 0x0
  2884                           
  2885  0070                     ?_SYSTEM_Initialize:	
  2886                           ; 1 bytes @ 0x0
  2887                           
  2888  0070                     ??_SYSTEM_Initialize:	
  2889                           ; 1 bytes @ 0x0
  2890                           
  2891  0070                     ?_main:	
  2892                           ; 1 bytes @ 0x0
  2893                           
  2894  0070                     ?_write_reg:	
  2895                           ; 1 bytes @ 0x0
  2896                           
  2897  0070                     ?___awdiv:	
  2898                           ; 1 bytes @ 0x0
  2899                           
  2900  0070                     ?___awmod:	
  2901                           ; 2 bytes @ 0x0
  2902                           
  2903  0070                     ___awdiv@divisor:	
  2904                           ; 2 bytes @ 0x0
  2905                           
  2906  0070                     ___awmod@divisor:	
  2907                           ; 2 bytes @ 0x0
  2908                           
  2909  0070                     write_reg@pin:	
  2910                           ; 2 bytes @ 0x0
  2911                           
  2912                           
  2913                           ; 3 bytes @ 0x0
  2914  0070                     	ds	2
  2915  0072                     ___awdiv@dividend:
  2916  0072                     ___awmod@dividend:	
  2917                           ; 2 bytes @ 0x2
  2918                           
  2919                           
  2920                           ; 2 bytes @ 0x2
  2921  0072                     	ds	1
  2922  0073                     write_reg@data:
  2923                           
  2924                           ; 1 bytes @ 0x3
  2925  0073                     	ds	1
  2926  0074                     ??_write_reg:
  2927  0074                     ??___awdiv:	
  2928                           ; 1 bytes @ 0x4
  2929                           
  2930  0074                     ??___awmod:	
  2931                           ; 1 bytes @ 0x4
  2932                           
  2933                           
  2934                           ; 1 bytes @ 0x4
  2935  0074                     	ds	1
  2936  0075                     ___awdiv@counter:
  2937  0075                     ___awmod@counter:	
  2938                           ; 1 bytes @ 0x5
  2939                           
  2940                           
  2941                           ; 1 bytes @ 0x5
  2942  0075                     	ds	1
  2943  0076                     ??__tm1637Start:
  2944  0076                     ?__tm1637WriteByte:	
  2945                           ; 1 bytes @ 0x6
  2946                           
  2947  0076                     ??__tm1637ReadResult:	
  2948                           ; 1 bytes @ 0x6
  2949                           
  2950  0076                     ??__tm1637Stop:	
  2951                           ; 1 bytes @ 0x6
  2952                           
  2953  0076                     __tm1637Start@display:	
  2954                           ; 1 bytes @ 0x6
  2955                           
  2956  0076                     __tm1637Stop@display:	
  2957                           ; 1 bytes @ 0x6
  2958                           
  2959  0076                     __tm1637ReadResult@display:	
  2960                           ; 1 bytes @ 0x6
  2961                           
  2962  0076                     __tm1637WriteByte@b:	
  2963                           ; 1 bytes @ 0x6
  2964                           
  2965  0076                     ___awdiv@sign:	
  2966                           ; 1 bytes @ 0x6
  2967                           
  2968  0076                     ___awmod@sign:	
  2969                           ; 1 bytes @ 0x6
  2970                           
  2971                           
  2972                           ; 1 bytes @ 0x6
  2973  0076                     	ds	1
  2974  0077                     ??__tm1637WriteByte:
  2975  0077                     ___awdiv@quotient:	
  2976                           ; 1 bytes @ 0x7
  2977                           
  2978                           
  2979                           ; 2 bytes @ 0x7
  2980  0077                     	ds	1
  2981  0078                     __tm1637WriteByte@i:
  2982                           
  2983                           ; 2 bytes @ 0x8
  2984  0078                     	ds	2
  2985  007A                     __tm1637WriteByte@display:
  2986                           
  2987                           ; 1 bytes @ 0xA
  2988  007A                     	ds	1
  2989  007B                     ?_tm1637SetBrightness:
  2990  007B                     ??_tm1637DisplayDecimal:	
  2991                           ; 1 bytes @ 0xB
  2992                           
  2993  007B                     tm1637SetBrightness@brightness:	
  2994                           ; 1 bytes @ 0xB
  2995                           
  2996                           
  2997                           ; 1 bytes @ 0xB
  2998  007B                     	ds	1
  2999  007C                     ??_tm1637SetBrightness:
  3000                           
  3001                           ; 1 bytes @ 0xC
  3002  007C                     	ds	1
  3003  007D                     tm1637SetBrightness@display:
  3004                           
  3005                           ; 1 bytes @ 0xD
  3006  007D                     	ds	1
  3007                           
  3008                           	psect	cstackBANK0
  3009  0020                     __pcstackBANK0:
  3010  0020                     ?_tm1637Init:
  3011  0020                     ?_tm1637DisplayDecimal:	
  3012                           ; 1 bytes @ 0x0
  3013                           
  3014  0020                     tm1637DisplayDecimal@v:	
  3015                           ; 1 bytes @ 0x0
  3016                           
  3017  0020                     tm1637Init@DIO:	
  3018                           ; 2 bytes @ 0x0
  3019                           
  3020                           
  3021                           ; 3 bytes @ 0x0
  3022  0020                     	ds	2
  3023  0022                     tm1637DisplayDecimal@displaySeparator:
  3024                           
  3025                           ; 2 bytes @ 0x2
  3026  0022                     	ds	1
  3027  0023                     tm1637Init@CLK:
  3028                           
  3029                           ; 3 bytes @ 0x3
  3030  0023                     	ds	1
  3031  0024                     tm1637DisplayDecimal@digitArr:
  3032                           
  3033                           ; 4 bytes @ 0x4
  3034  0024                     	ds	2
  3035  0026                     ??_tm1637Init:
  3036                           
  3037                           ; 1 bytes @ 0x6
  3038  0026                     	ds	2
  3039  0028                     tm1637DisplayDecimal@i_323:
  3040                           
  3041                           ; 2 bytes @ 0x8
  3042  0028                     	ds	2
  3043  002A                     tm1637DisplayDecimal@i:
  3044                           
  3045                           ; 2 bytes @ 0xA
  3046  002A                     	ds	2
  3047  002C                     tm1637DisplayDecimal@display:
  3048                           
  3049                           ; 1 bytes @ 0xC
  3050  002C                     	ds	1
  3051  002D                     ??_main:
  3052                           
  3053                           ; 1 bytes @ 0xD
  3054  002D                     	ds	2
  3055  002F                     main@display:
  3056                           
  3057                           ; 1 bytes @ 0xF
  3058  002F                     	ds	1
  3059  0030                     main@9979:
  3060                           
  3061                           ; 4 bytes @ 0x10
  3062  0030                     	ds	4
  3063  0034                     main@9981:
  3064                           
  3065                           ; 4 bytes @ 0x14
  3066  0034                     	ds	4
  3067                           
  3068                           	psect	maintext
  3069  0687                     __pmaintext:	
  3070 ;;
  3071 ;;Main: autosize = 0, tempsize = 2, incstack = 0, save=0
  3072 ;;
  3073 ;; *************** function _main *****************
  3074 ;; Defined at:
  3075 ;;		line 15 in file "main.c"
  3076 ;; Parameters:    Size  Location     Type
  3077 ;;		None
  3078 ;; Auto vars:     Size  Location     Type
  3079 ;;  9981            4   20[BANK0 ] volatile struct .
  3080 ;;  9979            4   16[BANK0 ] volatile struct .
  3081 ;;  display         1   15[BANK0 ] PTR volatile struct .
  3082 ;;		 -> tm1637Init@display(6), 
  3083 ;; Return value:  Size  Location     Type
  3084 ;;                  1    wreg      void 
  3085 ;; Registers used:
  3086 ;;		wreg, fsr0l, fsr0h, fsr1l, fsr1h, status,2, status,0, pclath, cstack
  3087 ;; Tracked objects:
  3088 ;;		On entry : B1F/0
  3089 ;;		On exit  : 0/0
  3090 ;;		Unchanged: 0/0
  3091 ;; Data sizes:     COMMON   BANK0   BANK1   BANK2   BANK3   BANK4   BANK5   BANK6   BANK7   BANK8   BANK9  BANK10  BANK1
      +1  BANK12
  3092 ;;      Params:         0       0       0       0       0       0       0       0       0       0       0       0       
      +0       0
  3093 ;;      Locals:         0       9       0       0       0       0       0       0       0       0       0       0       
      +0       0
  3094 ;;      Temps:          0       2       0       0       0       0       0       0       0       0       0       0       
      +0       0
  3095 ;;      Totals:         0      11       0       0       0       0       0       0       0       0       0       0       
      +0       0
  3096 ;;Total ram usage:       11 bytes
  3097 ;; Hardware stack levels required when called: 4
  3098 ;; This function calls:
  3099 ;;		_SYSTEM_Initialize
  3100 ;;		_tm1637DisplayDecimal
  3101 ;;		_tm1637Init
  3102 ;;		_tm1637SetBrightness
  3103 ;; This function is called by:
  3104 ;;		Startup code after reset
  3105 ;; This function uses a non-reentrant model
  3106 ;;
  3107                           
  3108  0687                     _main:	
  3109                           ;psect for function _main
  3110                           
  3111  0687                     l1268:	
  3112                           ;incstack = 0
  3113                           ; Regs used in _main: [wreg-fsr1h+status,2+status,0+pclath+cstack]
  3114                           
  3115                           
  3116                           ;main.c: 24:         (tPin){0x4, 0x2, &PORTA},;main.c: 25:         (tPin){0x20, 0x5, &PO
      +                          RTA};main.c: 16:     SYSTEM_Initialize();
  3117  0687  3184  24C2  3186   	fcall	_SYSTEM_Initialize
  3118  068A                     l1270:
  3119  068A  0022               	movlb	2	; select bank2
  3120  068B  110C               	bcf	12,2	;volatile
  3121  068C                     l1272:
  3122  068C  128C               	bcf	12,5	;volatile
  3123  068D                     l1274:
  3124                           
  3125                           ;main.c: 21:     _delay((unsigned long)((1000)*(1000000/4000.0)));
  3126  068D  3002               	movlw	2
  3127  068E  0020               	movlb	0	; select bank0
  3128  068F  00AE               	movwf	??_main+1
  3129  0690  3045               	movlw	69
  3130  0691  00AD               	movwf	??_main
  3131  0692  30A9               	movlw	169
  3132  0693                     u577:
  3133  0693  0B89               	decfsz	9,f
  3134  0694  2E93               	goto	u577
  3135  0695  0BAD               	decfsz	??_main,f
  3136  0696  2E93               	goto	u577
  3137  0697  0BAE               	decfsz	??_main+1,f
  3138  0698  2E93               	goto	u577
  3139  0699  3200               	nop2
  3140  069A                     l1276:
  3141                           
  3142                           ;main.c: 23:     tm1637Pins_t *display = tm1637Init(
  3143  069A  0020               	movlb	0	; select bank0
  3144  069B  083B               	movf	main@F9980+3,w	;volatile
  3145  069C  00B7               	movwf	main@9981+3	;volatile
  3146  069D  083A               	movf	main@F9980+2,w	;volatile
  3147  069E  00B6               	movwf	main@9981+2	;volatile
  3148  069F  0839               	movf	main@F9980+1,w	;volatile
  3149  06A0  00B5               	movwf	main@9981+1	;volatile
  3150  06A1  0838               	movf	main@F9980,w	;volatile
  3151  06A2  00B4               	movwf	main@9981	;volatile
  3152  06A3                     l1278:
  3153  06A3  083F               	movf	main@F9978+3,w	;volatile
  3154  06A4  00B3               	movwf	main@9979+3	;volatile
  3155  06A5  083E               	movf	main@F9978+2,w	;volatile
  3156  06A6  00B2               	movwf	main@9979+2	;volatile
  3157  06A7  083D               	movf	main@F9978+1,w	;volatile
  3158  06A8  00B1               	movwf	main@9979+1	;volatile
  3159  06A9  083C               	movf	main@F9978,w	;volatile
  3160  06AA  00B0               	movwf	main@9979	;volatile
  3161  06AB                     l1280:
  3162  06AB  0830               	movf	main@9979,w	;volatile
  3163  06AC  00A0               	movwf	tm1637Init@DIO
  3164  06AD  0831               	movf	main@9979+1,w	;volatile
  3165  06AE  00A1               	movwf	tm1637Init@DIO+1
  3166  06AF  0832               	movf	main@9979+2,w	;volatile
  3167  06B0  00A2               	movwf	tm1637Init@DIO+2
  3168  06B1  0834               	movf	main@9981,w	;volatile
  3169  06B2  00A3               	movwf	tm1637Init@CLK
  3170  06B3  0835               	movf	main@9981+1,w	;volatile
  3171  06B4  00A4               	movwf	tm1637Init@CLK+1
  3172  06B5  0836               	movf	main@9981+2,w	;volatile
  3173  06B6  00A5               	movwf	tm1637Init@CLK+2
  3174  06B7  3184  24FF  3186   	fcall	_tm1637Init
  3175  06BA  0020               	movlb	0	; select bank0
  3176  06BB  00AD               	movwf	??_main
  3177  06BC  082D               	movf	??_main,w
  3178  06BD  00AF               	movwf	main@display
  3179  06BE                     l1282:
  3180                           
  3181                           ;main.c: 28:     tm1637SetBrightness(display, 3);
  3182  06BE  3003               	movlw	3
  3183  06BF  00AD               	movwf	??_main
  3184  06C0  082D               	movf	??_main,w
  3185  06C1  00FB               	movwf	tm1637SetBrightness@brightness
  3186  06C2  082F               	movf	main@display,w
  3187  06C3  3184  24E8  3186   	fcall	_tm1637SetBrightness
  3188  06C6                     l1284:
  3189                           
  3190                           ;main.c: 29:     tm1637DisplayDecimal(display, 1234, 1);
  3191  06C6  30D2               	movlw	210
  3192  06C7  0020               	movlb	0	; select bank0
  3193  06C8  00A0               	movwf	tm1637DisplayDecimal@v
  3194  06C9  3004               	movlw	4
  3195  06CA  00A1               	movwf	tm1637DisplayDecimal@v+1
  3196  06CB  3001               	movlw	1
  3197  06CC  00A2               	movwf	tm1637DisplayDecimal@displaySeparator
  3198  06CD  3000               	movlw	0
  3199  06CE  00A3               	movwf	tm1637DisplayDecimal@displaySeparator+1
  3200  06CF  082F               	movf	main@display,w
  3201  06D0  3187  273E  3186   	fcall	_tm1637DisplayDecimal
  3202  06D3                     l1286:
  3203                           
  3204                           ;main.c: 32:         _delay((unsigned long)((50)*(1000000/4000.0)));
  3205  06D3  3011               	movlw	17
  3206  06D4  0020               	movlb	0	; select bank0
  3207  06D5  00AD               	movwf	??_main
  3208  06D6  303A               	movlw	58
  3209  06D7                     u587:
  3210  06D7  0B89               	decfsz	9,f
  3211  06D8  2ED7               	goto	u587
  3212  06D9  0BAD               	decfsz	??_main,f
  3213  06DA  2ED7               	goto	u587
  3214  06DB  0000               	nop
  3215  06DC  2ED3               	goto	l1286
  3216  06DD  3180  2802         	ljmp	start
  3217  06DF                     __end_of_main:
  3218                           
  3219                           	psect	text1
  3220  04FF                     __ptext1:	
  3221 ;; *************** function _tm1637Init *****************
  3222 ;; Defined at:
  3223 ;;		line 20 in file "TM1637Display.c"
  3224 ;; Parameters:    Size  Location     Type
  3225 ;;  DIO             3    0[BANK0 ] volatile struct .
  3226 ;;  CLK             3    3[BANK0 ] volatile struct .
  3227 ;; Auto vars:     Size  Location     Type
  3228 ;;		None
  3229 ;; Return value:  Size  Location     Type
  3230 ;;                  1    wreg      PTR volatile struct .
  3231 ;; Registers used:
  3232 ;;		wreg, fsr1l, fsr1h, status,2, status,0, pclath, cstack
  3233 ;; Tracked objects:
  3234 ;;		On entry : 0/0
  3235 ;;		On exit  : 0/0
  3236 ;;		Unchanged: 0/0
  3237 ;; Data sizes:     COMMON   BANK0   BANK1   BANK2   BANK3   BANK4   BANK5   BANK6   BANK7   BANK8   BANK9  BANK10  BANK1
      +1  BANK12
  3238 ;;      Params:         0       6       0       0       0       0       0       0       0       0       0       0       
      +0       0
  3239 ;;      Locals:         0       0       0       0       0       0       0       0       0       0       0       0       
      +0       0
  3240 ;;      Temps:          0       1       0       0       0       0       0       0       0       0       0       0       
      +0       0
  3241 ;;      Totals:         0       7       0       0       0       0       0       0       0       0       0       0       
      +0       0
  3242 ;;Total ram usage:        7 bytes
  3243 ;; Hardware stack levels used: 1
  3244 ;; Hardware stack levels required when called: 3
  3245 ;; This function calls:
  3246 ;;		_tm1637SetBrightness
  3247 ;; This function is called by:
  3248 ;;		_main
  3249 ;; This function uses a non-reentrant model
  3250 ;;
  3251                           
  3252  04FF                     _tm1637Init:	
  3253                           ;psect for function _tm1637Init
  3254                           
  3255  04FF                     l1172:	
  3256                           ;incstack = 0
  3257                           ; Regs used in _tm1637Init: [wreg+fsr1l+fsr1h+status,2+status,0+pclath+cstack]
  3258                           
  3259                           
  3260                           ;TM1637Display.c: 21:     static tm1637Pins_t display;;TM1637Display.c: 22:     display.
      +                          DIO = DIO;
  3261  04FF  0020               	movlb	0	; select bank0
  3262  0500  0820               	movf	tm1637Init@DIO,w	;volatile
  3263  0501  00C0               	movwf	tm1637Init@display	;volatile
  3264  0502  0821               	movf	tm1637Init@DIO+1,w	;volatile
  3265  0503  00C1               	movwf	tm1637Init@display+1	;volatile
  3266  0504  0822               	movf	tm1637Init@DIO+2,w	;volatile
  3267  0505  00C2               	movwf	tm1637Init@display+2	;volatile
  3268                           
  3269                           ;TM1637Display.c: 23:     display.CLK = CLK;
  3270  0506  0823               	movf	tm1637Init@CLK,w	;volatile
  3271  0507  00C3               	movwf	tm1637Init@display+3	;volatile
  3272  0508  0824               	movf	tm1637Init@CLK+1,w	;volatile
  3273  0509  00C4               	movwf	tm1637Init@display+4	;volatile
  3274  050A  0825               	movf	tm1637Init@CLK+2,w	;volatile
  3275  050B  00C5               	movwf	tm1637Init@display+5	;volatile
  3276  050C                     l1174:
  3277                           
  3278                           ;TM1637Display.c: 25:     tm1637SetBrightness(&display, 8);
  3279  050C  3008               	movlw	8
  3280  050D  00A6               	movwf	??_tm1637Init
  3281  050E  0826               	movf	??_tm1637Init,w
  3282  050F  00FB               	movwf	tm1637SetBrightness@brightness
  3283  0510  3040               	movlw	(low (tm1637Init@display| 0))& (0+255)
  3284  0511  3184  24E8  3184   	fcall	_tm1637SetBrightness
  3285  0514                     l1176:
  3286                           
  3287                           ;TM1637Display.c: 27:     return &display;
  3288  0514  3040               	movlw	(low (tm1637Init@display| 0))& (0+255)
  3289  0515                     l149:
  3290  0515  0008               	return
  3291  0516                     __end_of_tm1637Init:
  3292                           
  3293                           	psect	text2
  3294  04E8                     __ptext2:	
  3295 ;; *************** function _tm1637SetBrightness *****************
  3296 ;; Defined at:
  3297 ;;		line 59 in file "TM1637Display.c"
  3298 ;; Parameters:    Size  Location     Type
  3299 ;;  display         1    wreg     PTR volatile struct .
  3300 ;;		 -> tm1637Init@display(6), 
  3301 ;;  brightness      1   11[COMMON] unsigned char 
  3302 ;; Auto vars:     Size  Location     Type
  3303 ;;  display         1   13[COMMON] PTR volatile struct .
  3304 ;;		 -> tm1637Init@display(6), 
  3305 ;; Return value:  Size  Location     Type
  3306 ;;                  1    wreg      void 
  3307 ;; Registers used:
  3308 ;;		wreg, fsr1l, fsr1h, status,2, status,0, pclath, cstack
  3309 ;; Tracked objects:
  3310 ;;		On entry : 0/0
  3311 ;;		On exit  : 0/0
  3312 ;;		Unchanged: 0/0
  3313 ;; Data sizes:     COMMON   BANK0   BANK1   BANK2   BANK3   BANK4   BANK5   BANK6   BANK7   BANK8   BANK9  BANK10  BANK1
      +1  BANK12
  3314 ;;      Params:         1       0       0       0       0       0       0       0       0       0       0       0       
      +0       0
  3315 ;;      Locals:         1       0       0       0       0       0       0       0       0       0       0       0       
      +0       0
  3316 ;;      Temps:          1       0       0       0       0       0       0       0       0       0       0       0       
      +0       0
  3317 ;;      Totals:         3       0       0       0       0       0       0       0       0       0       0       0       
      +0       0
  3318 ;;Total ram usage:        3 bytes
  3319 ;; Hardware stack levels used: 1
  3320 ;; Hardware stack levels required when called: 2
  3321 ;; This function calls:
  3322 ;;		__tm1637ReadResult
  3323 ;;		__tm1637Start
  3324 ;;		__tm1637Stop
  3325 ;;		__tm1637WriteByte
  3326 ;; This function is called by:
  3327 ;;		_main
  3328 ;;		_tm1637Init
  3329 ;; This function uses a non-reentrant model
  3330 ;;
  3331                           
  3332  04E8                     _tm1637SetBrightness:	
  3333                           ;psect for function _tm1637SetBrightness
  3334                           
  3335                           
  3336                           ;incstack = 0
  3337                           ; Regs used in _tm1637SetBrightness: [wreg+fsr1l+fsr1h+status,2+status,0+pclath+cstack]
  3338                           ;tm1637SetBrightness@display stored from wreg
  3339  04E8  00FD               	movwf	tm1637SetBrightness@display
  3340  04E9                     l1086:
  3341                           
  3342                           ;TM1637Display.c: 65:     _tm1637Start(display);
  3343  04E9  087D               	movf	tm1637SetBrightness@display,w
  3344  04EA  3185  2541  3184   	fcall	__tm1637Start
  3345                           
  3346                           ;TM1637Display.c: 66:     _tm1637WriteByte(display, 0x87 + brightness);
  3347  04ED  087B               	movf	tm1637SetBrightness@brightness,w
  3348  04EE  3E87               	addlw	135
  3349  04EF  00FC               	movwf	??_tm1637SetBrightness
  3350  04F0  087C               	movf	??_tm1637SetBrightness,w
  3351  04F1  00F6               	movwf	__tm1637WriteByte@b
  3352  04F2  087D               	movf	tm1637SetBrightness@display,w
  3353  04F3  3186  262F  3184   	fcall	__tm1637WriteByte
  3354                           
  3355                           ;TM1637Display.c: 67:     _tm1637ReadResult(display);
  3356  04F6  087D               	movf	tm1637SetBrightness@display,w
  3357  04F7  3185  256E  3184   	fcall	__tm1637ReadResult
  3358                           
  3359                           ;TM1637Display.c: 68:     _tm1637Stop(display);
  3360  04FA  087D               	movf	tm1637SetBrightness@display,w
  3361  04FB  3185  259F  3184   	fcall	__tm1637Stop
  3362  04FE                     l160:
  3363  04FE  0008               	return
  3364  04FF                     __end_of_tm1637SetBrightness:
  3365                           
  3366                           	psect	text3
  3367  073E                     __ptext3:	
  3368 ;; *************** function _tm1637DisplayDecimal *****************
  3369 ;; Defined at:
  3370 ;;		line 30 in file "TM1637Display.c"
  3371 ;; Parameters:    Size  Location     Type
  3372 ;;  display         1    wreg     PTR volatile struct .
  3373 ;;		 -> tm1637Init@display(6), 
  3374 ;;  v               2    0[BANK0 ] int 
  3375 ;;  displaySepar    2    2[BANK0 ] int 
  3376 ;; Auto vars:     Size  Location     Type
  3377 ;;  display         1   12[BANK0 ] PTR volatile struct .
  3378 ;;		 -> tm1637Init@display(6), 
  3379 ;;  i               2    8[BANK0 ] int 
  3380 ;;  i               2   10[BANK0 ] int 
  3381 ;;  digitArr        4    4[BANK0 ] unsigned char [4]
  3382 ;; Return value:  Size  Location     Type
  3383 ;;                  1    wreg      void 
  3384 ;; Registers used:
  3385 ;;		wreg, fsr0l, fsr0h, fsr1l, fsr1h, status,2, status,0, pclath, cstack
  3386 ;; Tracked objects:
  3387 ;;		On entry : 0/0
  3388 ;;		On exit  : 0/0
  3389 ;;		Unchanged: 0/0
  3390 ;; Data sizes:     COMMON   BANK0   BANK1   BANK2   BANK3   BANK4   BANK5   BANK6   BANK7   BANK8   BANK9  BANK10  BANK1
      +1  BANK12
  3391 ;;      Params:         0       4       0       0       0       0       0       0       0       0       0       0       
      +0       0
  3392 ;;      Locals:         0       9       0       0       0       0       0       0       0       0       0       0       
      +0       0
  3393 ;;      Temps:          1       0       0       0       0       0       0       0       0       0       0       0       
      +0       0
  3394 ;;      Totals:         1      13       0       0       0       0       0       0       0       0       0       0       
      +0       0
  3395 ;;Total ram usage:       14 bytes
  3396 ;; Hardware stack levels used: 1
  3397 ;; Hardware stack levels required when called: 2
  3398 ;; This function calls:
  3399 ;;		___awdiv
  3400 ;;		___awmod
  3401 ;;		__tm1637ReadResult
  3402 ;;		__tm1637Start
  3403 ;;		__tm1637Stop
  3404 ;;		__tm1637WriteByte
  3405 ;; This function is called by:
  3406 ;;		_main
  3407 ;; This function uses a non-reentrant model
  3408 ;;
  3409                           
  3410  073E                     _tm1637DisplayDecimal:	
  3411                           ;psect for function _tm1637DisplayDecimal
  3412                           
  3413                           
  3414                           ;incstack = 0
  3415                           ; Regs used in _tm1637DisplayDecimal: [wreg-fsr1h+status,2+status,0+pclath+cstack]
  3416                           ;tm1637DisplayDecimal@display stored from wreg
  3417  073E  0020               	movlb	0	; select bank0
  3418  073F  00AC               	movwf	tm1637DisplayDecimal@display
  3419  0740                     l1180:
  3420                           
  3421                           ;TM1637Display.c: 31:     unsigned char digitArr[4];;TM1637Display.c: 32:     for (int i
      +                           = 0; i < 4; ++i) {
  3422  0740  01AA               	clrf	tm1637DisplayDecimal@i
  3423  0741  01AB               	clrf	tm1637DisplayDecimal@i+1
  3424  0742                     l1186:
  3425                           
  3426                           ;TM1637Display.c: 33:         digitArr[i] = segmentMap[v % 10];
  3427  0742  300A               	movlw	10
  3428  0743  00F0               	movwf	___awmod@divisor
  3429  0744  3000               	movlw	0
  3430  0745  00F1               	movwf	___awmod@divisor+1
  3431  0746  0020               	movlb	0	; select bank0
  3432  0747  0821               	movf	tm1637DisplayDecimal@v+1,w
  3433  0748  00F3               	movwf	___awmod@dividend+1
  3434  0749  0820               	movf	tm1637DisplayDecimal@v,w
  3435  074A  00F2               	movwf	___awmod@dividend
  3436  074B  3185  25DC  3187   	fcall	___awmod
  3437  074E  0871               	movf	?___awmod+1,w
  3438  074F  0085               	movwf	5
  3439  0750  0870               	movf	?___awmod,w
  3440  0751  0084               	movwf	4
  3441  0752  3000               	movlw	low (_segmentMap| (0+32768))
  3442  0753  0784               	addwf	4,f
  3443  0754  3088               	movlw	high (_segmentMap| (0+32768))
  3444  0755  3D85               	addwfc	5,f
  3445  0756  0800               	movf	0,w	;code access
  3446  0757  00FB               	movwf	??_tm1637DisplayDecimal
  3447  0758  0020               	movlb	0	; select bank0
  3448  0759  082A               	movf	tm1637DisplayDecimal@i,w
  3449  075A  3E24               	addlw	(low (tm1637DisplayDecimal@digitArr| 0))& (0+255)
  3450  075B  0086               	movwf	6
  3451  075C  0187               	clrf	7
  3452  075D  087B               	movf	??_tm1637DisplayDecimal,w
  3453  075E  0081               	movwf	1
  3454  075F                     l1188:
  3455                           
  3456                           ;TM1637Display.c: 34:         if (i == 2 && displaySeparator) {
  3457  075F  3002               	movlw	2
  3458  0760  062A               	xorwf	tm1637DisplayDecimal@i,w
  3459  0761  042B               	iorwf	tm1637DisplayDecimal@i+1,w
  3460  0762  1D03               	btfss	3,2
  3461  0763  2F65               	goto	u511
  3462  0764  2F66               	goto	u510
  3463  0765                     u511:
  3464  0765  2F71               	goto	l1194
  3465  0766                     u510:
  3466  0766                     l1190:
  3467  0766  0822               	movf	tm1637DisplayDecimal@displaySeparator,w
  3468  0767  0423               	iorwf	tm1637DisplayDecimal@displaySeparator+1,w
  3469  0768  1903               	btfsc	3,2
  3470  0769  2F6B               	goto	u521
  3471  076A  2F6C               	goto	u520
  3472  076B                     u521:
  3473  076B  2F71               	goto	l1194
  3474  076C                     u520:
  3475  076C                     l1192:
  3476                           
  3477                           ;TM1637Display.c: 35:             digitArr[i] |= 1 << 7;
  3478  076C  082A               	movf	tm1637DisplayDecimal@i,w
  3479  076D  3E24               	addlw	(low (tm1637DisplayDecimal@digitArr| 0))& (0+255)
  3480  076E  0086               	movwf	6
  3481  076F  0187               	clrf	7
  3482  0770  1781               	bsf	1,7
  3483  0771                     l1194:
  3484                           
  3485                           ;TM1637Display.c: 37:         v /= 10;
  3486  0771  300A               	movlw	10
  3487  0772  00F0               	movwf	___awdiv@divisor
  3488  0773  3000               	movlw	0
  3489  0774  00F1               	movwf	___awdiv@divisor+1
  3490  0775  0821               	movf	tm1637DisplayDecimal@v+1,w
  3491  0776  00F3               	movwf	___awdiv@dividend+1
  3492  0777  0820               	movf	tm1637DisplayDecimal@v,w
  3493  0778  00F2               	movwf	___awdiv@dividend
  3494  0779  3186  26DF  3187   	fcall	___awdiv
  3495  077C  0871               	movf	?___awdiv+1,w
  3496  077D  0020               	movlb	0	; select bank0
  3497  077E  00A1               	movwf	tm1637DisplayDecimal@v+1
  3498  077F  0870               	movf	?___awdiv,w
  3499  0780  00A0               	movwf	tm1637DisplayDecimal@v
  3500  0781                     l1196:
  3501                           
  3502                           ;TM1637Display.c: 38:     }
  3503  0781  3001               	movlw	1
  3504  0782  07AA               	addwf	tm1637DisplayDecimal@i,f
  3505  0783  3000               	movlw	0
  3506  0784  3DAB               	addwfc	tm1637DisplayDecimal@i+1,f
  3507  0785                     l1198:
  3508  0785  082B               	movf	tm1637DisplayDecimal@i+1,w
  3509  0786  3A80               	xorlw	128
  3510  0787  00FB               	movwf	??_tm1637DisplayDecimal
  3511  0788  3080               	movlw	128
  3512  0789  027B               	subwf	??_tm1637DisplayDecimal,w
  3513  078A  1D03               	skipz
  3514  078B  2F8E               	goto	u535
  3515  078C  3004               	movlw	4
  3516  078D  022A               	subwf	tm1637DisplayDecimal@i,w
  3517  078E                     u535:
  3518  078E  1C03               	skipc
  3519  078F  2F91               	goto	u531
  3520  0790  2F92               	goto	u530
  3521  0791                     u531:
  3522  0791  2F42               	goto	l1186
  3523  0792                     u530:
  3524  0792                     l1200:
  3525                           
  3526                           ;TM1637Display.c: 40:     _tm1637Start(display);
  3527  0792  0020               	movlb	0	; select bank0
  3528  0793  082C               	movf	tm1637DisplayDecimal@display,w
  3529  0794  3185  2541  3187   	fcall	__tm1637Start
  3530                           
  3531                           ;TM1637Display.c: 41:     _tm1637WriteByte(display, 0x40);
  3532  0797  3040               	movlw	64
  3533  0798  00FB               	movwf	??_tm1637DisplayDecimal
  3534  0799  087B               	movf	??_tm1637DisplayDecimal,w
  3535  079A  00F6               	movwf	__tm1637WriteByte@b
  3536  079B  0020               	movlb	0	; select bank0
  3537  079C  082C               	movf	tm1637DisplayDecimal@display,w
  3538  079D  3186  262F  3187   	fcall	__tm1637WriteByte
  3539                           
  3540                           ;TM1637Display.c: 42:     _tm1637ReadResult(display);
  3541  07A0  0020               	movlb	0	; select bank0
  3542  07A1  082C               	movf	tm1637DisplayDecimal@display,w
  3543  07A2  3185  256E  3187   	fcall	__tm1637ReadResult
  3544                           
  3545                           ;TM1637Display.c: 43:     _tm1637Stop(display);
  3546  07A5  0020               	movlb	0	; select bank0
  3547  07A6  082C               	movf	tm1637DisplayDecimal@display,w
  3548  07A7  3185  259F  3187   	fcall	__tm1637Stop
  3549                           
  3550                           ;TM1637Display.c: 45:     _tm1637Start(display);
  3551  07AA  0020               	movlb	0	; select bank0
  3552  07AB  082C               	movf	tm1637DisplayDecimal@display,w
  3553  07AC  3185  2541  3187   	fcall	__tm1637Start
  3554                           
  3555                           ;TM1637Display.c: 46:     _tm1637WriteByte(display, 0xc0);
  3556  07AF  30C0               	movlw	192
  3557  07B0  00FB               	movwf	??_tm1637DisplayDecimal
  3558  07B1  087B               	movf	??_tm1637DisplayDecimal,w
  3559  07B2  00F6               	movwf	__tm1637WriteByte@b
  3560  07B3  0020               	movlb	0	; select bank0
  3561  07B4  082C               	movf	tm1637DisplayDecimal@display,w
  3562  07B5  3186  262F  3187   	fcall	__tm1637WriteByte
  3563                           
  3564                           ;TM1637Display.c: 47:     _tm1637ReadResult(display);
  3565  07B8  0020               	movlb	0	; select bank0
  3566  07B9  082C               	movf	tm1637DisplayDecimal@display,w
  3567  07BA  3185  256E  3187   	fcall	__tm1637ReadResult
  3568  07BD                     l1202:
  3569                           
  3570                           ;TM1637Display.c: 49:     for (int i = 0; i < 4; ++i) {
  3571  07BD  0020               	movlb	0	; select bank0
  3572  07BE  01A8               	clrf	tm1637DisplayDecimal@i_323
  3573  07BF  01A9               	clrf	tm1637DisplayDecimal@i_323+1
  3574  07C0                     l1208:
  3575                           
  3576                           ;TM1637Display.c: 50:         _tm1637WriteByte(display, digitArr[3 - i]);
  3577  07C0  0020               	movlb	0	; select bank0
  3578  07C1  0828               	movf	tm1637DisplayDecimal@i_323,w
  3579  07C2  3C03               	sublw	3
  3580  07C3  3E24               	addlw	(low (tm1637DisplayDecimal@digitArr| 0))& (0+255)
  3581  07C4  0086               	movwf	6
  3582  07C5  0187               	clrf	7
  3583  07C6  0801               	movf	1,w
  3584  07C7  00FB               	movwf	??_tm1637DisplayDecimal
  3585  07C8  087B               	movf	??_tm1637DisplayDecimal,w
  3586  07C9  00F6               	movwf	__tm1637WriteByte@b
  3587  07CA  082C               	movf	tm1637DisplayDecimal@display,w
  3588  07CB  3186  262F  3187   	fcall	__tm1637WriteByte
  3589                           
  3590                           ;TM1637Display.c: 51:         _tm1637ReadResult(display);
  3591  07CE  0020               	movlb	0	; select bank0
  3592  07CF  082C               	movf	tm1637DisplayDecimal@display,w
  3593  07D0  3185  256E  3187   	fcall	__tm1637ReadResult
  3594  07D3                     l1210:
  3595                           
  3596                           ;TM1637Display.c: 52:     }
  3597  07D3  3001               	movlw	1
  3598  07D4  0020               	movlb	0	; select bank0
  3599  07D5  07A8               	addwf	tm1637DisplayDecimal@i_323,f
  3600  07D6  3000               	movlw	0
  3601  07D7  3DA9               	addwfc	tm1637DisplayDecimal@i_323+1,f
  3602  07D8                     l1212:
  3603  07D8  0829               	movf	tm1637DisplayDecimal@i_323+1,w
  3604  07D9  3A80               	xorlw	128
  3605  07DA  00FB               	movwf	??_tm1637DisplayDecimal
  3606  07DB  3080               	movlw	128
  3607  07DC  027B               	subwf	??_tm1637DisplayDecimal,w
  3608  07DD  1D03               	skipz
  3609  07DE  2FE1               	goto	u545
  3610  07DF  3004               	movlw	4
  3611  07E0  0228               	subwf	tm1637DisplayDecimal@i_323,w
  3612  07E1                     u545:
  3613  07E1  1C03               	skipc
  3614  07E2  2FE4               	goto	u541
  3615  07E3  2FE5               	goto	u540
  3616  07E4                     u541:
  3617  07E4  2FC0               	goto	l1208
  3618  07E5                     u540:
  3619  07E5                     l1214:
  3620                           
  3621                           ;TM1637Display.c: 54:     _tm1637Stop(display);
  3622  07E5  0020               	movlb	0	; select bank0
  3623  07E6  082C               	movf	tm1637DisplayDecimal@display,w
  3624  07E7  3185  259F  3187   	fcall	__tm1637Stop
  3625  07EA                     l157:
  3626  07EA  0008               	return
  3627  07EB                     __end_of_tm1637DisplayDecimal:
  3628                           
  3629                           	psect	text4
  3630  062F                     __ptext4:	
  3631 ;; *************** function __tm1637WriteByte *****************
  3632 ;; Defined at:
  3633 ;;		line 97 in file "TM1637Display.c"
  3634 ;; Parameters:    Size  Location     Type
  3635 ;;  display         1    wreg     PTR volatile struct .
  3636 ;;		 -> tm1637Init@display(6), 
  3637 ;;  b               1    6[COMMON] unsigned char 
  3638 ;; Auto vars:     Size  Location     Type
  3639 ;;  display         1   10[COMMON] PTR volatile struct .
  3640 ;;		 -> tm1637Init@display(6), 
  3641 ;;  i               2    8[COMMON] int 
  3642 ;; Return value:  Size  Location     Type
  3643 ;;                  1    wreg      void 
  3644 ;; Registers used:
  3645 ;;		wreg, fsr1l, fsr1h, status,2, status,0, pclath, cstack
  3646 ;; Tracked objects:
  3647 ;;		On entry : 0/0
  3648 ;;		On exit  : 0/0
  3649 ;;		Unchanged: 0/0
  3650 ;; Data sizes:     COMMON   BANK0   BANK1   BANK2   BANK3   BANK4   BANK5   BANK6   BANK7   BANK8   BANK9  BANK10  BANK1
      +1  BANK12
  3651 ;;      Params:         1       0       0       0       0       0       0       0       0       0       0       0       
      +0       0
  3652 ;;      Locals:         3       0       0       0       0       0       0       0       0       0       0       0       
      +0       0
  3653 ;;      Temps:          1       0       0       0       0       0       0       0       0       0       0       0       
      +0       0
  3654 ;;      Totals:         5       0       0       0       0       0       0       0       0       0       0       0       
      +0       0
  3655 ;;Total ram usage:        5 bytes
  3656 ;; Hardware stack levels used: 1
  3657 ;; Hardware stack levels required when called: 1
  3658 ;; This function calls:
  3659 ;;		_write_reg
  3660 ;; This function is called by:
  3661 ;;		_tm1637DisplayDecimal
  3662 ;;		_tm1637SetBrightness
  3663 ;; This function uses a non-reentrant model
  3664 ;;
  3665                           
  3666  062F                     __tm1637WriteByte:	
  3667                           ;psect for function __tm1637WriteByte
  3668                           
  3669                           
  3670                           ;incstack = 0
  3671                           ; Regs used in __tm1637WriteByte: [wreg+fsr1l+fsr1h+status,2+status,0+pclath+cstack]
  3672                           ;__tm1637WriteByte@display stored from wreg
  3673  062F  00FA               	movwf	__tm1637WriteByte@display
  3674  0630                     l1016:
  3675                           
  3676                           ;TM1637Display.c: 98:     for (int i = 0; i < 8; ++i) {
  3677  0630  01F8               	clrf	__tm1637WriteByte@i
  3678  0631  01F9               	clrf	__tm1637WriteByte@i+1
  3679  0632                     l1022:
  3680                           
  3681                           ;TM1637Display.c: 99:         write_reg(display->CLK, 0);
  3682  0632  087A               	movf	__tm1637WriteByte@display,w
  3683  0633  3E03               	addlw	3
  3684  0634  0086               	movwf	6
  3685  0635  0187               	clrf	7
  3686  0636  3F40               	moviw [0]fsr1
  3687  0637  00F0               	movwf	write_reg@pin
  3688  0638  3F41               	moviw [1]fsr1
  3689  0639  00F1               	movwf	write_reg@pin+1
  3690  063A  3F42               	moviw [2]fsr1
  3691  063B  00F2               	movwf	write_reg@pin+2
  3692  063C  01F3               	clrf	write_reg@data
  3693  063D  3184  24D1  3186   	fcall	_write_reg
  3694  0640                     l1024:
  3695                           
  3696                           ;TM1637Display.c: 100:         if (b & 0x01) {
  3697  0640  1C76               	btfss	__tm1637WriteByte@b,0
  3698  0641  2E43               	goto	u301
  3699  0642  2E44               	goto	u300
  3700  0643                     u301:
  3701  0643  2E53               	goto	l1028
  3702  0644                     u300:
  3703  0644                     l1026:
  3704                           
  3705                           ;TM1637Display.c: 101:             write_reg(display->DIO, 1);
  3706  0644  087A               	movf	__tm1637WriteByte@display,w
  3707  0645  0086               	movwf	6
  3708  0646  0187               	clrf	7
  3709  0647  3F40               	moviw [0]fsr1
  3710  0648  00F0               	movwf	write_reg@pin
  3711  0649  3F41               	moviw [1]fsr1
  3712  064A  00F1               	movwf	write_reg@pin+1
  3713  064B  3F42               	moviw [2]fsr1
  3714  064C  00F2               	movwf	write_reg@pin+2
  3715  064D  01F3               	clrf	write_reg@data
  3716  064E  0AF3               	incf	write_reg@data,f
  3717  064F  3184  24D1  3186   	fcall	_write_reg
  3718                           
  3719                           ;TM1637Display.c: 102:         }
  3720  0652  2E60               	goto	l1030
  3721  0653                     l1028:
  3722                           
  3723                           ;TM1637Display.c: 104:             write_reg(display->DIO, 0);
  3724  0653  087A               	movf	__tm1637WriteByte@display,w
  3725  0654  0086               	movwf	6
  3726  0655  0187               	clrf	7
  3727  0656  3F40               	moviw [0]fsr1
  3728  0657  00F0               	movwf	write_reg@pin
  3729  0658  3F41               	moviw [1]fsr1
  3730  0659  00F1               	movwf	write_reg@pin+1
  3731  065A  3F42               	moviw [2]fsr1
  3732  065B  00F2               	movwf	write_reg@pin+2
  3733  065C  01F3               	clrf	write_reg@data
  3734  065D  3184  24D1  3186   	fcall	_write_reg
  3735  0660                     l1030:
  3736                           
  3737                           ;TM1637Display.c: 106:         _delay((unsigned long)((3)*((4000000)/4000000.0)));
  3738  0660  3200               	nop2	;2 cycle nop
  3739  0661  0000               	nop
  3740  0662                     l1032:
  3741                           
  3742                           ;TM1637Display.c: 107:         b >>= 1;
  3743  0662  1003               	clrc
  3744  0663  0CF6               	rrf	__tm1637WriteByte@b,f
  3745  0664                     l1034:
  3746                           
  3747                           ;TM1637Display.c: 108:         write_reg(display->CLK, 1);
  3748  0664  087A               	movf	__tm1637WriteByte@display,w
  3749  0665  3E03               	addlw	3
  3750  0666  0086               	movwf	6
  3751  0667  0187               	clrf	7
  3752  0668  3F40               	moviw [0]fsr1
  3753  0669  00F0               	movwf	write_reg@pin
  3754  066A  3F41               	moviw [1]fsr1
  3755  066B  00F1               	movwf	write_reg@pin+1
  3756  066C  3F42               	moviw [2]fsr1
  3757  066D  00F2               	movwf	write_reg@pin+2
  3758  066E  01F3               	clrf	write_reg@data
  3759  066F  0AF3               	incf	write_reg@data,f
  3760  0670  3184  24D1  3186   	fcall	_write_reg
  3761  0673                     l1036:
  3762                           
  3763                           ;TM1637Display.c: 109:         _delay((unsigned long)((3)*((4000000)/4000000.0)));
  3764  0673  3200               	nop2	;2 cycle nop
  3765  0674  0000               	nop
  3766                           
  3767                           ;TM1637Display.c: 110:     }
  3768  0675  3001               	movlw	1
  3769  0676  07F8               	addwf	__tm1637WriteByte@i,f
  3770  0677  3000               	movlw	0
  3771  0678  3DF9               	addwfc	__tm1637WriteByte@i+1,f
  3772  0679  0879               	movf	__tm1637WriteByte@i+1,w
  3773  067A  3A80               	xorlw	128
  3774  067B  00F7               	movwf	??__tm1637WriteByte
  3775  067C  3080               	movlw	128
  3776  067D  0277               	subwf	??__tm1637WriteByte,w
  3777  067E  1D03               	skipz
  3778  067F  2E82               	goto	u315
  3779  0680  3008               	movlw	8
  3780  0681  0278               	subwf	__tm1637WriteByte@i,w
  3781  0682                     u315:
  3782  0682  1C03               	skipc
  3783  0683  2E85               	goto	u311
  3784  0684  2E86               	goto	u310
  3785  0685                     u311:
  3786  0685  2E32               	goto	l1022
  3787  0686                     u310:
  3788  0686                     l176:
  3789  0686  0008               	return
  3790  0687                     __end_of__tm1637WriteByte:
  3791                           
  3792                           	psect	text5
  3793  059F                     __ptext5:	
  3794 ;; *************** function __tm1637Stop *****************
  3795 ;; Defined at:
  3796 ;;		line 78 in file "TM1637Display.c"
  3797 ;; Parameters:    Size  Location     Type
  3798 ;;  display         1    wreg     PTR volatile struct .
  3799 ;;		 -> tm1637Init@display(6), 
  3800 ;; Auto vars:     Size  Location     Type
  3801 ;;  display         1    6[COMMON] PTR volatile struct .
  3802 ;;		 -> tm1637Init@display(6), 
  3803 ;; Return value:  Size  Location     Type
  3804 ;;                  1    wreg      void 
  3805 ;; Registers used:
  3806 ;;		wreg, fsr1l, fsr1h, status,2, status,0, pclath, cstack
  3807 ;; Tracked objects:
  3808 ;;		On entry : 0/0
  3809 ;;		On exit  : 0/0
  3810 ;;		Unchanged: 0/0
  3811 ;; Data sizes:     COMMON   BANK0   BANK1   BANK2   BANK3   BANK4   BANK5   BANK6   BANK7   BANK8   BANK9  BANK10  BANK1
      +1  BANK12
  3812 ;;      Params:         0       0       0       0       0       0       0       0       0       0       0       0       
      +0       0
  3813 ;;      Locals:         1       0       0       0       0       0       0       0       0       0       0       0       
      +0       0
  3814 ;;      Temps:          0       0       0       0       0       0       0       0       0       0       0       0       
      +0       0
  3815 ;;      Totals:         1       0       0       0       0       0       0       0       0       0       0       0       
      +0       0
  3816 ;;Total ram usage:        1 bytes
  3817 ;; Hardware stack levels used: 1
  3818 ;; Hardware stack levels required when called: 1
  3819 ;; This function calls:
  3820 ;;		_write_reg
  3821 ;; This function is called by:
  3822 ;;		_tm1637DisplayDecimal
  3823 ;;		_tm1637SetBrightness
  3824 ;; This function uses a non-reentrant model
  3825 ;;
  3826                           
  3827  059F                     __tm1637Stop:	
  3828                           ;psect for function __tm1637Stop
  3829                           
  3830                           
  3831                           ;incstack = 0
  3832                           ; Regs used in __tm1637Stop: [wreg+fsr1l+fsr1h+status,2+status,0+pclath+cstack]
  3833                           ;__tm1637Stop@display stored from wreg
  3834  059F  00F6               	movwf	__tm1637Stop@display
  3835  05A0                     l1044:
  3836                           
  3837                           ;TM1637Display.c: 79:     write_reg(display->CLK, 0);
  3838  05A0  0876               	movf	__tm1637Stop@display,w
  3839  05A1  3E03               	addlw	3
  3840  05A2  0086               	movwf	6
  3841  05A3  0187               	clrf	7
  3842  05A4  3F40               	moviw [0]fsr1
  3843  05A5  00F0               	movwf	write_reg@pin
  3844  05A6  3F41               	moviw [1]fsr1
  3845  05A7  00F1               	movwf	write_reg@pin+1
  3846  05A8  3F42               	moviw [2]fsr1
  3847  05A9  00F2               	movwf	write_reg@pin+2
  3848  05AA  01F3               	clrf	write_reg@data
  3849  05AB  3184  24D1  3185   	fcall	_write_reg
  3850  05AE                     l1046:
  3851                           
  3852                           ;TM1637Display.c: 80:     _delay((unsigned long)((2)*((4000000)/4000000.0)));
  3853  05AE  3200               	nop2	;2 cycle nop
  3854                           
  3855                           ;TM1637Display.c: 81:     write_reg(display->DIO, 0);
  3856  05AF  0876               	movf	__tm1637Stop@display,w
  3857  05B0  0086               	movwf	6
  3858  05B1  0187               	clrf	7
  3859  05B2  3F40               	moviw [0]fsr1
  3860  05B3  00F0               	movwf	write_reg@pin
  3861  05B4  3F41               	moviw [1]fsr1
  3862  05B5  00F1               	movwf	write_reg@pin+1
  3863  05B6  3F42               	moviw [2]fsr1
  3864  05B7  00F2               	movwf	write_reg@pin+2
  3865  05B8  01F3               	clrf	write_reg@data
  3866  05B9  3184  24D1  3185   	fcall	_write_reg
  3867  05BC                     l1048:
  3868                           
  3869                           ;TM1637Display.c: 82:     _delay((unsigned long)((2)*((4000000)/4000000.0)));
  3870  05BC  3200               	nop2	;2 cycle nop
  3871                           
  3872                           ;TM1637Display.c: 83:     write_reg(display->CLK, 1);
  3873  05BD  0876               	movf	__tm1637Stop@display,w
  3874  05BE  3E03               	addlw	3
  3875  05BF  0086               	movwf	6
  3876  05C0  0187               	clrf	7
  3877  05C1  3F40               	moviw [0]fsr1
  3878  05C2  00F0               	movwf	write_reg@pin
  3879  05C3  3F41               	moviw [1]fsr1
  3880  05C4  00F1               	movwf	write_reg@pin+1
  3881  05C5  3F42               	moviw [2]fsr1
  3882  05C6  00F2               	movwf	write_reg@pin+2
  3883  05C7  01F3               	clrf	write_reg@data
  3884  05C8  0AF3               	incf	write_reg@data,f
  3885  05C9  3184  24D1  3185   	fcall	_write_reg
  3886  05CC                     l1050:
  3887                           
  3888                           ;TM1637Display.c: 84:     _delay((unsigned long)((2)*((4000000)/4000000.0)));
  3889  05CC  3200               	nop2	;2 cycle nop
  3890                           
  3891                           ;TM1637Display.c: 85:     write_reg(display->DIO, 1);
  3892  05CD  0876               	movf	__tm1637Stop@display,w
  3893  05CE  0086               	movwf	6
  3894  05CF  0187               	clrf	7
  3895  05D0  3F40               	moviw [0]fsr1
  3896  05D1  00F0               	movwf	write_reg@pin
  3897  05D2  3F41               	moviw [1]fsr1
  3898  05D3  00F1               	movwf	write_reg@pin+1
  3899  05D4  3F42               	moviw [2]fsr1
  3900  05D5  00F2               	movwf	write_reg@pin+2
  3901  05D6  01F3               	clrf	write_reg@data
  3902  05D7  0AF3               	incf	write_reg@data,f
  3903  05D8  3184  24D1  3185   	fcall	_write_reg
  3904  05DB                     l166:
  3905  05DB  0008               	return
  3906  05DC                     __end_of__tm1637Stop:
  3907                           
  3908                           	psect	text6
  3909  0541                     __ptext6:	
  3910 ;; *************** function __tm1637Start *****************
  3911 ;; Defined at:
  3912 ;;		line 71 in file "TM1637Display.c"
  3913 ;; Parameters:    Size  Location     Type
  3914 ;;  display         1    wreg     PTR volatile struct .
  3915 ;;		 -> tm1637Init@display(6), 
  3916 ;; Auto vars:     Size  Location     Type
  3917 ;;  display         1    6[COMMON] PTR volatile struct .
  3918 ;;		 -> tm1637Init@display(6), 
  3919 ;; Return value:  Size  Location     Type
  3920 ;;                  1    wreg      void 
  3921 ;; Registers used:
  3922 ;;		wreg, fsr1l, fsr1h, status,2, status,0, pclath, cstack
  3923 ;; Tracked objects:
  3924 ;;		On entry : 0/0
  3925 ;;		On exit  : 0/0
  3926 ;;		Unchanged: 0/0
  3927 ;; Data sizes:     COMMON   BANK0   BANK1   BANK2   BANK3   BANK4   BANK5   BANK6   BANK7   BANK8   BANK9  BANK10  BANK1
      +1  BANK12
  3928 ;;      Params:         0       0       0       0       0       0       0       0       0       0       0       0       
      +0       0
  3929 ;;      Locals:         1       0       0       0       0       0       0       0       0       0       0       0       
      +0       0
  3930 ;;      Temps:          0       0       0       0       0       0       0       0       0       0       0       0       
      +0       0
  3931 ;;      Totals:         1       0       0       0       0       0       0       0       0       0       0       0       
      +0       0
  3932 ;;Total ram usage:        1 bytes
  3933 ;; Hardware stack levels used: 1
  3934 ;; Hardware stack levels required when called: 1
  3935 ;; This function calls:
  3936 ;;		_write_reg
  3937 ;; This function is called by:
  3938 ;;		_tm1637DisplayDecimal
  3939 ;;		_tm1637SetBrightness
  3940 ;; This function uses a non-reentrant model
  3941 ;;
  3942                           
  3943  0541                     __tm1637Start:	
  3944                           ;psect for function __tm1637Start
  3945                           
  3946                           
  3947                           ;incstack = 0
  3948                           ; Regs used in __tm1637Start: [wreg+fsr1l+fsr1h+status,2+status,0+pclath+cstack]
  3949                           ;__tm1637Start@display stored from wreg
  3950  0541  00F6               	movwf	__tm1637Start@display
  3951  0542                     l1012:
  3952                           
  3953                           ;TM1637Display.c: 72:     write_reg(display->CLK, 1);
  3954  0542  0876               	movf	__tm1637Start@display,w
  3955  0543  3E03               	addlw	3
  3956  0544  0086               	movwf	6
  3957  0545  0187               	clrf	7
  3958  0546  3F40               	moviw [0]fsr1
  3959  0547  00F0               	movwf	write_reg@pin
  3960  0548  3F41               	moviw [1]fsr1
  3961  0549  00F1               	movwf	write_reg@pin+1
  3962  054A  3F42               	moviw [2]fsr1
  3963  054B  00F2               	movwf	write_reg@pin+2
  3964  054C  01F3               	clrf	write_reg@data
  3965  054D  0AF3               	incf	write_reg@data,f
  3966  054E  3184  24D1  3185   	fcall	_write_reg
  3967                           
  3968                           ;TM1637Display.c: 73:     write_reg(display->DIO, 1);
  3969  0551  0876               	movf	__tm1637Start@display,w
  3970  0552  0086               	movwf	6
  3971  0553  0187               	clrf	7
  3972  0554  3F40               	moviw [0]fsr1
  3973  0555  00F0               	movwf	write_reg@pin
  3974  0556  3F41               	moviw [1]fsr1
  3975  0557  00F1               	movwf	write_reg@pin+1
  3976  0558  3F42               	moviw [2]fsr1
  3977  0559  00F2               	movwf	write_reg@pin+2
  3978  055A  01F3               	clrf	write_reg@data
  3979  055B  0AF3               	incf	write_reg@data,f
  3980  055C  3184  24D1  3185   	fcall	_write_reg
  3981  055F                     l1014:
  3982                           
  3983                           ;TM1637Display.c: 74:     _delay((unsigned long)((2)*((4000000)/4000000.0)));
  3984  055F  3200               	nop2	;2 cycle nop
  3985                           
  3986                           ;TM1637Display.c: 75:     write_reg(display->DIO, 0);
  3987  0560  0876               	movf	__tm1637Start@display,w
  3988  0561  0086               	movwf	6
  3989  0562  0187               	clrf	7
  3990  0563  3F40               	moviw [0]fsr1
  3991  0564  00F0               	movwf	write_reg@pin
  3992  0565  3F41               	moviw [1]fsr1
  3993  0566  00F1               	movwf	write_reg@pin+1
  3994  0567  3F42               	moviw [2]fsr1
  3995  0568  00F2               	movwf	write_reg@pin+2
  3996  0569  01F3               	clrf	write_reg@data
  3997  056A  3184  24D1  3185   	fcall	_write_reg
  3998  056D                     l163:
  3999  056D  0008               	return
  4000  056E                     __end_of__tm1637Start:
  4001                           
  4002                           	psect	text7
  4003  056E                     __ptext7:	
  4004 ;; *************** function __tm1637ReadResult *****************
  4005 ;; Defined at:
  4006 ;;		line 88 in file "TM1637Display.c"
  4007 ;; Parameters:    Size  Location     Type
  4008 ;;  display         1    wreg     PTR volatile struct .
  4009 ;;		 -> tm1637Init@display(6), 
  4010 ;; Auto vars:     Size  Location     Type
  4011 ;;  display         1    6[COMMON] PTR volatile struct .
  4012 ;;		 -> tm1637Init@display(6), 
  4013 ;; Return value:  Size  Location     Type
  4014 ;;                  1    wreg      void 
  4015 ;; Registers used:
  4016 ;;		wreg, fsr1l, fsr1h, status,2, status,0, pclath, cstack
  4017 ;; Tracked objects:
  4018 ;;		On entry : 0/0
  4019 ;;		On exit  : 0/0
  4020 ;;		Unchanged: 0/0
  4021 ;; Data sizes:     COMMON   BANK0   BANK1   BANK2   BANK3   BANK4   BANK5   BANK6   BANK7   BANK8   BANK9  BANK10  BANK1
      +1  BANK12
  4022 ;;      Params:         0       0       0       0       0       0       0       0       0       0       0       0       
      +0       0
  4023 ;;      Locals:         1       0       0       0       0       0       0       0       0       0       0       0       
      +0       0
  4024 ;;      Temps:          0       0       0       0       0       0       0       0       0       0       0       0       
      +0       0
  4025 ;;      Totals:         1       0       0       0       0       0       0       0       0       0       0       0       
      +0       0
  4026 ;;Total ram usage:        1 bytes
  4027 ;; Hardware stack levels used: 1
  4028 ;; Hardware stack levels required when called: 1
  4029 ;; This function calls:
  4030 ;;		_write_reg
  4031 ;; This function is called by:
  4032 ;;		_tm1637DisplayDecimal
  4033 ;;		_tm1637SetBrightness
  4034 ;; This function uses a non-reentrant model
  4035 ;;
  4036                           
  4037  056E                     __tm1637ReadResult:	
  4038                           ;psect for function __tm1637ReadResult
  4039                           
  4040                           
  4041                           ;incstack = 0
  4042                           ; Regs used in __tm1637ReadResult: [wreg+fsr1l+fsr1h+status,2+status,0+pclath+cstack]
  4043                           ;__tm1637ReadResult@display stored from wreg
  4044  056E  00F6               	movwf	__tm1637ReadResult@display
  4045  056F                     l1038:
  4046                           
  4047                           ;TM1637Display.c: 89:     write_reg(display->CLK, 0);
  4048  056F  0876               	movf	__tm1637ReadResult@display,w
  4049  0570  3E03               	addlw	3
  4050  0571  0086               	movwf	6
  4051  0572  0187               	clrf	7
  4052  0573  3F40               	moviw [0]fsr1
  4053  0574  00F0               	movwf	write_reg@pin
  4054  0575  3F41               	moviw [1]fsr1
  4055  0576  00F1               	movwf	write_reg@pin+1
  4056  0577  3F42               	moviw [2]fsr1
  4057  0578  00F2               	movwf	write_reg@pin+2
  4058  0579  01F3               	clrf	write_reg@data
  4059  057A  3184  24D1  3185   	fcall	_write_reg
  4060  057D                     l1040:
  4061                           
  4062                           ;TM1637Display.c: 90:     _delay((unsigned long)((5)*((4000000)/4000000.0)));
  4063  057D  3200               	nop2	;2 cycle nop
  4064  057E  3200               	nop2	;2 cycle nop
  4065  057F  0000               	nop
  4066                           
  4067                           ;TM1637Display.c: 92:     write_reg(display->CLK, 1);
  4068  0580  0876               	movf	__tm1637ReadResult@display,w
  4069  0581  3E03               	addlw	3
  4070  0582  0086               	movwf	6
  4071  0583  0187               	clrf	7
  4072  0584  3F40               	moviw [0]fsr1
  4073  0585  00F0               	movwf	write_reg@pin
  4074  0586  3F41               	moviw [1]fsr1
  4075  0587  00F1               	movwf	write_reg@pin+1
  4076  0588  3F42               	moviw [2]fsr1
  4077  0589  00F2               	movwf	write_reg@pin+2
  4078  058A  01F3               	clrf	write_reg@data
  4079  058B  0AF3               	incf	write_reg@data,f
  4080  058C  3184  24D1  3185   	fcall	_write_reg
  4081  058F                     l1042:
  4082                           
  4083                           ;TM1637Display.c: 93:     _delay((unsigned long)((2)*((4000000)/4000000.0)));
  4084  058F  3200               	nop2	;2 cycle nop
  4085                           
  4086                           ;TM1637Display.c: 94:     write_reg(display->CLK, 0);
  4087  0590  0876               	movf	__tm1637ReadResult@display,w
  4088  0591  3E03               	addlw	3
  4089  0592  0086               	movwf	6
  4090  0593  0187               	clrf	7
  4091  0594  3F40               	moviw [0]fsr1
  4092  0595  00F0               	movwf	write_reg@pin
  4093  0596  3F41               	moviw [1]fsr1
  4094  0597  00F1               	movwf	write_reg@pin+1
  4095  0598  3F42               	moviw [2]fsr1
  4096  0599  00F2               	movwf	write_reg@pin+2
  4097  059A  01F3               	clrf	write_reg@data
  4098  059B  3184  24D1  3185   	fcall	_write_reg
  4099  059E                     l169:
  4100  059E  0008               	return
  4101  059F                     __end_of__tm1637ReadResult:
  4102                           
  4103                           	psect	text8
  4104  04D1                     __ptext8:	
  4105 ;; *************** function _write_reg *****************
  4106 ;; Defined at:
  4107 ;;		line 11 in file "custom_pin.c"
  4108 ;; Parameters:    Size  Location     Type
  4109 ;;  pin             3    0[COMMON] volatile struct .
  4110 ;;  data            1    3[COMMON] unsigned char 
  4111 ;; Auto vars:     Size  Location     Type
  4112 ;;		None
  4113 ;; Return value:  Size  Location     Type
  4114 ;;                  1    wreg      void 
  4115 ;; Registers used:
  4116 ;;		wreg, fsr1l, fsr1h, status,2, status,0
  4117 ;; Tracked objects:
  4118 ;;		On entry : 0/0
  4119 ;;		On exit  : 0/0
  4120 ;;		Unchanged: 0/0
  4121 ;; Data sizes:     COMMON   BANK0   BANK1   BANK2   BANK3   BANK4   BANK5   BANK6   BANK7   BANK8   BANK9  BANK10  BANK1
      +1  BANK12
  4122 ;;      Params:         4       0       0       0       0       0       0       0       0       0       0       0       
      +0       0
  4123 ;;      Locals:         0       0       0       0       0       0       0       0       0       0       0       0       
      +0       0
  4124 ;;      Temps:          2       0       0       0       0       0       0       0       0       0       0       0       
      +0       0
  4125 ;;      Totals:         6       0       0       0       0       0       0       0       0       0       0       0       
      +0       0
  4126 ;;Total ram usage:        6 bytes
  4127 ;; Hardware stack levels used: 1
  4128 ;; This function calls:
  4129 ;;		Nothing
  4130 ;; This function is called by:
  4131 ;;		__tm1637Start
  4132 ;;		__tm1637Stop
  4133 ;;		__tm1637ReadResult
  4134 ;;		__tm1637WriteByte
  4135 ;;		_start
  4136 ;;		_stop
  4137 ;;		_write_byte
  4138 ;; This function uses a non-reentrant model
  4139 ;;
  4140                           
  4141  04D1                     _write_reg:	
  4142                           ;psect for function _write_reg
  4143                           
  4144  04D1                     l1010:	
  4145                           ;incstack = 0
  4146                           ; Regs used in _write_reg: [wreg+fsr1l+fsr1h+status,2+status,0]
  4147                           
  4148                           
  4149                           ;custom_pin.c: 12:     *(pin.port) &= ~pin.mask;
  4150  04D1  0970               	comf	write_reg@pin,w	;volatile
  4151  04D2  00F4               	movwf	??_write_reg
  4152  04D3  0872               	movf	write_reg@pin+2,w	;volatile
  4153  04D4  0086               	movwf	6
  4154  04D5  0187               	clrf	7
  4155  04D6  0874               	movf	??_write_reg,w
  4156  04D7  0581               	andwf	1,f
  4157                           
  4158                           ;custom_pin.c: 13:     *(pin.port) |= (data << pin.pos & pin.mask);
  4159  04D8  0873               	movf	write_reg@data,w
  4160  04D9  00F4               	movwf	??_write_reg
  4161  04DA  0A71               	incf	write_reg@pin+1,w	;volatile
  4162  04DB  2CDD               	goto	u294
  4163  04DC                     u295:
  4164  04DC  35F4               	lslf	??_write_reg,f
  4165  04DD                     u294:
  4166  04DD  0B89               	decfsz	9,f
  4167  04DE  2CDC               	goto	u295
  4168  04DF  0874               	movf	??_write_reg,w
  4169  04E0  0570               	andwf	write_reg@pin,w	;volatile
  4170  04E1  00F5               	movwf	??_write_reg+1
  4171  04E2  0872               	movf	write_reg@pin+2,w	;volatile
  4172  04E3  0086               	movwf	6
  4173  04E4  0187               	clrf	7
  4174  04E5  0875               	movf	??_write_reg+1,w
  4175  04E6  0481               	iorwf	1,f
  4176  04E7                     l99:
  4177  04E7  0008               	return
  4178  04E8                     __end_of_write_reg:
  4179                           
  4180                           	psect	text9
  4181  05DC                     __ptext9:	
  4182 ;; *************** function ___awmod *****************
  4183 ;; Defined at:
  4184 ;;		line 5 in file "/Applications/microchip/xc8/v2.35/pic/sources/c99/common/awmod.c"
  4185 ;; Parameters:    Size  Location     Type
  4186 ;;  divisor         2    0[COMMON] int 
  4187 ;;  dividend        2    2[COMMON] int 
  4188 ;; Auto vars:     Size  Location     Type
  4189 ;;  sign            1    6[COMMON] unsigned char 
  4190 ;;  counter         1    5[COMMON] unsigned char 
  4191 ;; Return value:  Size  Location     Type
  4192 ;;                  2    0[COMMON] int 
  4193 ;; Registers used:
  4194 ;;		wreg, status,2, status,0
  4195 ;; Tracked objects:
  4196 ;;		On entry : 0/0
  4197 ;;		On exit  : 0/0
  4198 ;;		Unchanged: 0/0
  4199 ;; Data sizes:     COMMON   BANK0   BANK1   BANK2   BANK3   BANK4   BANK5   BANK6   BANK7   BANK8   BANK9  BANK10  BANK1
      +1  BANK12
  4200 ;;      Params:         4       0       0       0       0       0       0       0       0       0       0       0       
      +0       0
  4201 ;;      Locals:         2       0       0       0       0       0       0       0       0       0       0       0       
      +0       0
  4202 ;;      Temps:          1       0       0       0       0       0       0       0       0       0       0       0       
      +0       0
  4203 ;;      Totals:         7       0       0       0       0       0       0       0       0       0       0       0       
      +0       0
  4204 ;;Total ram usage:        7 bytes
  4205 ;; Hardware stack levels used: 1
  4206 ;; This function calls:
  4207 ;;		Nothing
  4208 ;; This function is called by:
  4209 ;;		_tm1637DisplayDecimal
  4210 ;; This function uses a non-reentrant model
  4211 ;;
  4212                           
  4213  05DC                     ___awmod:	
  4214                           ;psect for function ___awmod
  4215                           
  4216  05DC                     l1132:	
  4217                           ;incstack = 0
  4218                           ; Regs used in ___awmod: [wreg+status,2+status,0]
  4219                           
  4220  05DC  01F6               	clrf	___awmod@sign
  4221  05DD                     l1134:
  4222  05DD  1FF3               	btfss	___awmod@dividend+1,7
  4223  05DE  2DE0               	goto	u421
  4224  05DF  2DE1               	goto	u420
  4225  05E0                     u421:
  4226  05E0  2DE8               	goto	l1140
  4227  05E1                     u420:
  4228  05E1                     l1136:
  4229  05E1  09F2               	comf	___awmod@dividend,f
  4230  05E2  09F3               	comf	___awmod@dividend+1,f
  4231  05E3  0AF2               	incf	___awmod@dividend,f
  4232  05E4  1903               	skipnz
  4233  05E5  0AF3               	incf	___awmod@dividend+1,f
  4234  05E6                     l1138:
  4235  05E6  01F6               	clrf	___awmod@sign
  4236  05E7  0AF6               	incf	___awmod@sign,f
  4237  05E8                     l1140:
  4238  05E8  1FF1               	btfss	___awmod@divisor+1,7
  4239  05E9  2DEB               	goto	u431
  4240  05EA  2DEC               	goto	u430
  4241  05EB                     u431:
  4242  05EB  2DF1               	goto	l1144
  4243  05EC                     u430:
  4244  05EC                     l1142:
  4245  05EC  09F0               	comf	___awmod@divisor,f
  4246  05ED  09F1               	comf	___awmod@divisor+1,f
  4247  05EE  0AF0               	incf	___awmod@divisor,f
  4248  05EF  1903               	skipnz
  4249  05F0  0AF1               	incf	___awmod@divisor+1,f
  4250  05F1                     l1144:
  4251  05F1  0870               	movf	___awmod@divisor,w
  4252  05F2  0471               	iorwf	___awmod@divisor+1,w
  4253  05F3  1903               	btfsc	3,2
  4254  05F4  2DF6               	goto	u441
  4255  05F5  2DF7               	goto	u440
  4256  05F6                     u441:
  4257  05F6  2E20               	goto	l1162
  4258  05F7                     u440:
  4259  05F7                     l1146:
  4260  05F7  01F5               	clrf	___awmod@counter
  4261  05F8  0AF5               	incf	___awmod@counter,f
  4262  05F9  2E03               	goto	l1152
  4263  05FA                     l1148:
  4264  05FA  3001               	movlw	1
  4265  05FB                     u455:
  4266  05FB  35F0               	lslf	___awmod@divisor,f
  4267  05FC  0DF1               	rlf	___awmod@divisor+1,f
  4268  05FD  0B89               	decfsz	9,f
  4269  05FE  2DFB               	goto	u455
  4270  05FF                     l1150:
  4271  05FF  3001               	movlw	1
  4272  0600  00F4               	movwf	??___awmod
  4273  0601  0874               	movf	??___awmod,w
  4274  0602  07F5               	addwf	___awmod@counter,f
  4275  0603                     l1152:
  4276  0603  1FF1               	btfss	___awmod@divisor+1,7
  4277  0604  2E06               	goto	u461
  4278  0605  2E07               	goto	u460
  4279  0606                     u461:
  4280  0606  2DFA               	goto	l1148
  4281  0607                     u460:
  4282  0607                     l1154:
  4283  0607  0871               	movf	___awmod@divisor+1,w
  4284  0608  0273               	subwf	___awmod@dividend+1,w
  4285  0609  1D03               	skipz
  4286  060A  2E0D               	goto	u475
  4287  060B  0870               	movf	___awmod@divisor,w
  4288  060C  0272               	subwf	___awmod@dividend,w
  4289  060D                     u475:
  4290  060D  1C03               	skipc
  4291  060E  2E10               	goto	u471
  4292  060F  2E11               	goto	u470
  4293  0610                     u471:
  4294  0610  2E15               	goto	l1158
  4295  0611                     u470:
  4296  0611                     l1156:
  4297  0611  0870               	movf	___awmod@divisor,w
  4298  0612  02F2               	subwf	___awmod@dividend,f
  4299  0613  0871               	movf	___awmod@divisor+1,w
  4300  0614  3BF3               	subwfb	___awmod@dividend+1,f
  4301  0615                     l1158:
  4302  0615  3001               	movlw	1
  4303  0616                     u485:
  4304  0616  36F1               	lsrf	___awmod@divisor+1,f
  4305  0617  0CF0               	rrf	___awmod@divisor,f
  4306  0618  0B89               	decfsz	9,f
  4307  0619  2E16               	goto	u485
  4308  061A                     l1160:
  4309  061A  3001               	movlw	1
  4310  061B  02F5               	subwf	___awmod@counter,f
  4311  061C  1D03               	btfss	3,2
  4312  061D  2E1F               	goto	u491
  4313  061E  2E20               	goto	u490
  4314  061F                     u491:
  4315  061F  2E07               	goto	l1154
  4316  0620                     u490:
  4317  0620                     l1162:
  4318  0620  0876               	movf	___awmod@sign,w
  4319  0621  1903               	btfsc	3,2
  4320  0622  2E24               	goto	u501
  4321  0623  2E25               	goto	u500
  4322  0624                     u501:
  4323  0624  2E2A               	goto	l1166
  4324  0625                     u500:
  4325  0625                     l1164:
  4326  0625  09F2               	comf	___awmod@dividend,f
  4327  0626  09F3               	comf	___awmod@dividend+1,f
  4328  0627  0AF2               	incf	___awmod@dividend,f
  4329  0628  1903               	skipnz
  4330  0629  0AF3               	incf	___awmod@dividend+1,f
  4331  062A                     l1166:
  4332  062A  0873               	movf	___awmod@dividend+1,w
  4333  062B  00F1               	movwf	?___awmod+1
  4334  062C  0872               	movf	___awmod@dividend,w
  4335  062D  00F0               	movwf	?___awmod
  4336  062E                     l410:
  4337  062E  0008               	return
  4338  062F                     __end_of___awmod:
  4339                           
  4340                           	psect	text10
  4341  06DF                     __ptext10:	
  4342 ;; *************** function ___awdiv *****************
  4343 ;; Defined at:
  4344 ;;		line 5 in file "/Applications/microchip/xc8/v2.35/pic/sources/c99/common/awdiv.c"
  4345 ;; Parameters:    Size  Location     Type
  4346 ;;  divisor         2    0[COMMON] int 
  4347 ;;  dividend        2    2[COMMON] int 
  4348 ;; Auto vars:     Size  Location     Type
  4349 ;;  quotient        2    7[COMMON] int 
  4350 ;;  sign            1    6[COMMON] unsigned char 
  4351 ;;  counter         1    5[COMMON] unsigned char 
  4352 ;; Return value:  Size  Location     Type
  4353 ;;                  2    0[COMMON] int 
  4354 ;; Registers used:
  4355 ;;		wreg, status,2, status,0
  4356 ;; Tracked objects:
  4357 ;;		On entry : 0/0
  4358 ;;		On exit  : 0/0
  4359 ;;		Unchanged: 0/0
  4360 ;; Data sizes:     COMMON   BANK0   BANK1   BANK2   BANK3   BANK4   BANK5   BANK6   BANK7   BANK8   BANK9  BANK10  BANK1
      +1  BANK12
  4361 ;;      Params:         4       0       0       0       0       0       0       0       0       0       0       0       
      +0       0
  4362 ;;      Locals:         4       0       0       0       0       0       0       0       0       0       0       0       
      +0       0
  4363 ;;      Temps:          1       0       0       0       0       0       0       0       0       0       0       0       
      +0       0
  4364 ;;      Totals:         9       0       0       0       0       0       0       0       0       0       0       0       
      +0       0
  4365 ;;Total ram usage:        9 bytes
  4366 ;; Hardware stack levels used: 1
  4367 ;; This function calls:
  4368 ;;		Nothing
  4369 ;; This function is called by:
  4370 ;;		_tm1637DisplayDecimal
  4371 ;; This function uses a non-reentrant model
  4372 ;;
  4373                           
  4374  06DF                     ___awdiv:	
  4375                           ;psect for function ___awdiv
  4376                           
  4377  06DF                     l1088:	
  4378                           ;incstack = 0
  4379                           ; Regs used in ___awdiv: [wreg+status,2+status,0]
  4380                           
  4381  06DF  01F6               	clrf	___awdiv@sign
  4382  06E0                     l1090:
  4383  06E0  1FF1               	btfss	___awdiv@divisor+1,7
  4384  06E1  2EE3               	goto	u321
  4385  06E2  2EE4               	goto	u320
  4386  06E3                     u321:
  4387  06E3  2EEB               	goto	l1096
  4388  06E4                     u320:
  4389  06E4                     l1092:
  4390  06E4  09F0               	comf	___awdiv@divisor,f
  4391  06E5  09F1               	comf	___awdiv@divisor+1,f
  4392  06E6  0AF0               	incf	___awdiv@divisor,f
  4393  06E7  1903               	skipnz
  4394  06E8  0AF1               	incf	___awdiv@divisor+1,f
  4395  06E9                     l1094:
  4396  06E9  01F6               	clrf	___awdiv@sign
  4397  06EA  0AF6               	incf	___awdiv@sign,f
  4398  06EB                     l1096:
  4399  06EB  1FF3               	btfss	___awdiv@dividend+1,7
  4400  06EC  2EEE               	goto	u331
  4401  06ED  2EEF               	goto	u330
  4402  06EE                     u331:
  4403  06EE  2EF8               	goto	l1102
  4404  06EF                     u330:
  4405  06EF                     l1098:
  4406  06EF  09F2               	comf	___awdiv@dividend,f
  4407  06F0  09F3               	comf	___awdiv@dividend+1,f
  4408  06F1  0AF2               	incf	___awdiv@dividend,f
  4409  06F2  1903               	skipnz
  4410  06F3  0AF3               	incf	___awdiv@dividend+1,f
  4411  06F4                     l1100:
  4412  06F4  3001               	movlw	1
  4413  06F5  00F4               	movwf	??___awdiv
  4414  06F6  0874               	movf	??___awdiv,w
  4415  06F7  06F6               	xorwf	___awdiv@sign,f
  4416  06F8                     l1102:
  4417  06F8  01F7               	clrf	___awdiv@quotient
  4418  06F9  01F8               	clrf	___awdiv@quotient+1
  4419  06FA                     l1104:
  4420  06FA  0870               	movf	___awdiv@divisor,w
  4421  06FB  0471               	iorwf	___awdiv@divisor+1,w
  4422  06FC  1903               	btfsc	3,2
  4423  06FD  2EFF               	goto	u341
  4424  06FE  2F00               	goto	u340
  4425  06FF                     u341:
  4426  06FF  2F2F               	goto	l1124
  4427  0700                     u340:
  4428  0700                     l1106:
  4429  0700  01F5               	clrf	___awdiv@counter
  4430  0701  0AF5               	incf	___awdiv@counter,f
  4431  0702  2F0C               	goto	l1112
  4432  0703                     l1108:
  4433  0703  3001               	movlw	1
  4434  0704                     u355:
  4435  0704  35F0               	lslf	___awdiv@divisor,f
  4436  0705  0DF1               	rlf	___awdiv@divisor+1,f
  4437  0706  0B89               	decfsz	9,f
  4438  0707  2F04               	goto	u355
  4439  0708                     l1110:
  4440  0708  3001               	movlw	1
  4441  0709  00F4               	movwf	??___awdiv
  4442  070A  0874               	movf	??___awdiv,w
  4443  070B  07F5               	addwf	___awdiv@counter,f
  4444  070C                     l1112:
  4445  070C  1FF1               	btfss	___awdiv@divisor+1,7
  4446  070D  2F0F               	goto	u361
  4447  070E  2F10               	goto	u360
  4448  070F                     u361:
  4449  070F  2F03               	goto	l1108
  4450  0710                     u360:
  4451  0710                     l1114:
  4452  0710  3001               	movlw	1
  4453  0711                     u375:
  4454  0711  35F7               	lslf	___awdiv@quotient,f
  4455  0712  0DF8               	rlf	___awdiv@quotient+1,f
  4456  0713  0B89               	decfsz	9,f
  4457  0714  2F11               	goto	u375
  4458  0715  0871               	movf	___awdiv@divisor+1,w
  4459  0716  0273               	subwf	___awdiv@dividend+1,w
  4460  0717  1D03               	skipz
  4461  0718  2F1B               	goto	u385
  4462  0719  0870               	movf	___awdiv@divisor,w
  4463  071A  0272               	subwf	___awdiv@dividend,w
  4464  071B                     u385:
  4465  071B  1C03               	skipc
  4466  071C  2F1E               	goto	u381
  4467  071D  2F1F               	goto	u380
  4468  071E                     u381:
  4469  071E  2F24               	goto	l1120
  4470  071F                     u380:
  4471  071F                     l1116:
  4472  071F  0870               	movf	___awdiv@divisor,w
  4473  0720  02F2               	subwf	___awdiv@dividend,f
  4474  0721  0871               	movf	___awdiv@divisor+1,w
  4475  0722  3BF3               	subwfb	___awdiv@dividend+1,f
  4476  0723                     l1118:
  4477  0723  1477               	bsf	___awdiv@quotient,0
  4478  0724                     l1120:
  4479  0724  3001               	movlw	1
  4480  0725                     u395:
  4481  0725  36F1               	lsrf	___awdiv@divisor+1,f
  4482  0726  0CF0               	rrf	___awdiv@divisor,f
  4483  0727  0B89               	decfsz	9,f
  4484  0728  2F25               	goto	u395
  4485  0729                     l1122:
  4486  0729  3001               	movlw	1
  4487  072A  02F5               	subwf	___awdiv@counter,f
  4488  072B  1D03               	btfss	3,2
  4489  072C  2F2E               	goto	u401
  4490  072D  2F2F               	goto	u400
  4491  072E                     u401:
  4492  072E  2F10               	goto	l1114
  4493  072F                     u400:
  4494  072F                     l1124:
  4495  072F  0876               	movf	___awdiv@sign,w
  4496  0730  1903               	btfsc	3,2
  4497  0731  2F33               	goto	u411
  4498  0732  2F34               	goto	u410
  4499  0733                     u411:
  4500  0733  2F39               	goto	l1128
  4501  0734                     u410:
  4502  0734                     l1126:
  4503  0734  09F7               	comf	___awdiv@quotient,f
  4504  0735  09F8               	comf	___awdiv@quotient+1,f
  4505  0736  0AF7               	incf	___awdiv@quotient,f
  4506  0737  1903               	skipnz
  4507  0738  0AF8               	incf	___awdiv@quotient+1,f
  4508  0739                     l1128:
  4509  0739  0878               	movf	___awdiv@quotient+1,w
  4510  073A  00F1               	movwf	?___awdiv+1
  4511  073B  0877               	movf	___awdiv@quotient,w
  4512  073C  00F0               	movwf	?___awdiv
  4513  073D                     l397:
  4514  073D  0008               	return
  4515  073E                     __end_of___awdiv:
  4516                           
  4517                           	psect	text11
  4518  04C2                     __ptext11:	
  4519 ;; *************** function _SYSTEM_Initialize *****************
  4520 ;; Defined at:
  4521 ;;		line 50 in file "mcc_generated_files/mcc.c"
  4522 ;; Parameters:    Size  Location     Type
  4523 ;;		None
  4524 ;; Auto vars:     Size  Location     Type
  4525 ;;		None
  4526 ;; Return value:  Size  Location     Type
  4527 ;;                  1    wreg      void 
  4528 ;; Registers used:
  4529 ;;		wreg, status,2, status,0, pclath, cstack
  4530 ;; Tracked objects:
  4531 ;;		On entry : 0/0
  4532 ;;		On exit  : 0/0
  4533 ;;		Unchanged: 0/0
  4534 ;; Data sizes:     COMMON   BANK0   BANK1   BANK2   BANK3   BANK4   BANK5   BANK6   BANK7   BANK8   BANK9  BANK10  BANK1
      +1  BANK12
  4535 ;;      Params:         0       0       0       0       0       0       0       0       0       0       0       0       
      +0       0
  4536 ;;      Locals:         0       0       0       0       0       0       0       0       0       0       0       0       
      +0       0
  4537 ;;      Temps:          0       0       0       0       0       0       0       0       0       0       0       0       
      +0       0
  4538 ;;      Totals:         0       0       0       0       0       0       0       0       0       0       0       0       
      +0       0
  4539 ;;Total ram usage:        0 bytes
  4540 ;; Hardware stack levels used: 1
  4541 ;; Hardware stack levels required when called: 1
  4542 ;; This function calls:
  4543 ;;		_OSCILLATOR_Initialize
  4544 ;;		_PIN_MANAGER_Initialize
  4545 ;; This function is called by:
  4546 ;;		_main
  4547 ;; This function uses a non-reentrant model
  4548 ;;
  4549                           
  4550  04C2                     _SYSTEM_Initialize:	
  4551                           ;psect for function _SYSTEM_Initialize
  4552                           
  4553  04C2                     l1170:	
  4554                           ;incstack = 0
  4555                           ; Regs used in _SYSTEM_Initialize: [wreg+status,2+status,0+pclath+cstack]
  4556                           
  4557                           
  4558                           ;mcc_generated_files/mcc.c: 52:     PIN_MANAGER_Initialize();
  4559  04C2  3185  2516  3184   	fcall	_PIN_MANAGER_Initialize
  4560                           
  4561                           ;mcc_generated_files/mcc.c: 53:     OSCILLATOR_Initialize();
  4562  04C5  3184  24BB  3184   	fcall	_OSCILLATOR_Initialize
  4563  04C8                     l63:
  4564  04C8  0008               	return
  4565  04C9                     __end_of_SYSTEM_Initialize:
  4566                           
  4567                           	psect	text12
  4568  0516                     __ptext12:	
  4569 ;; *************** function _PIN_MANAGER_Initialize *****************
  4570 ;; Defined at:
  4571 ;;		line 55 in file "mcc_generated_files/pin_manager.c"
  4572 ;; Parameters:    Size  Location     Type
  4573 ;;		None
  4574 ;; Auto vars:     Size  Location     Type
  4575 ;;		None
  4576 ;; Return value:  Size  Location     Type
  4577 ;;                  1    wreg      void 
  4578 ;; Registers used:
  4579 ;;		wreg, status,2
  4580 ;; Tracked objects:
  4581 ;;		On entry : 0/0
  4582 ;;		On exit  : 0/0
  4583 ;;		Unchanged: 0/0
  4584 ;; Data sizes:     COMMON   BANK0   BANK1   BANK2   BANK3   BANK4   BANK5   BANK6   BANK7   BANK8   BANK9  BANK10  BANK1
      +1  BANK12
  4585 ;;      Params:         0       0       0       0       0       0       0       0       0       0       0       0       
      +0       0
  4586 ;;      Locals:         0       0       0       0       0       0       0       0       0       0       0       0       
      +0       0
  4587 ;;      Temps:          0       0       0       0       0       0       0       0       0       0       0       0       
      +0       0
  4588 ;;      Totals:         0       0       0       0       0       0       0       0       0       0       0       0       
      +0       0
  4589 ;;Total ram usage:        0 bytes
  4590 ;; Hardware stack levels used: 1
  4591 ;; This function calls:
  4592 ;;		Nothing
  4593 ;; This function is called by:
  4594 ;;		_SYSTEM_Initialize
  4595 ;; This function uses a non-reentrant model
  4596 ;;
  4597                           
  4598  0516                     _PIN_MANAGER_Initialize:	
  4599                           ;psect for function _PIN_MANAGER_Initialize
  4600                           
  4601  0516                     l1052:	
  4602                           ;incstack = 0
  4603                           ; Regs used in _PIN_MANAGER_Initialize: [wreg+status,2]
  4604                           
  4605                           
  4606                           ;mcc_generated_files/pin_manager.c: 60:     LATA = 0x00;
  4607  0516  0022               	movlb	2	; select bank2
  4608  0517  018C               	clrf	12	;volatile
  4609                           
  4610                           ;mcc_generated_files/pin_manager.c: 61:     LATB = 0x00;
  4611  0518  018D               	clrf	13	;volatile
  4612                           
  4613                           ;mcc_generated_files/pin_manager.c: 62:     LATC = 0x00;
  4614  0519  018E               	clrf	14	;volatile
  4615  051A                     l1054:
  4616                           
  4617                           ;mcc_generated_files/pin_manager.c: 67:     TRISA = 0x13;
  4618  051A  3013               	movlw	19
  4619  051B  0021               	movlb	1	; select bank1
  4620  051C  008C               	movwf	12	;volatile
  4621  051D                     l1056:
  4622                           
  4623                           ;mcc_generated_files/pin_manager.c: 68:     TRISB = 0xF0;
  4624  051D  30F0               	movlw	240
  4625  051E  008D               	movwf	13	;volatile
  4626  051F                     l1058:
  4627                           
  4628                           ;mcc_generated_files/pin_manager.c: 69:     TRISC = 0xFF;
  4629  051F  30FF               	movlw	255
  4630  0520  008E               	movwf	14	;volatile
  4631  0521                     l1060:
  4632                           
  4633                           ;mcc_generated_files/pin_manager.c: 74:     ANSELC = 0xCF;
  4634  0521  30CF               	movlw	207
  4635  0522  0023               	movlb	3	; select bank3
  4636  0523  008E               	movwf	14	;volatile
  4637  0524                     l1062:
  4638                           
  4639                           ;mcc_generated_files/pin_manager.c: 75:     ANSELB = 0xF0;
  4640  0524  30F0               	movlw	240
  4641  0525  008D               	movwf	13	;volatile
  4642  0526                     l1064:
  4643                           
  4644                           ;mcc_generated_files/pin_manager.c: 76:     ANSELA = 0x11;
  4645  0526  3011               	movlw	17
  4646  0527  008C               	movwf	12	;volatile
  4647                           
  4648                           ;mcc_generated_files/pin_manager.c: 81:     WPUB = 0x00;
  4649  0528  0024               	movlb	4	; select bank4
  4650  0529  018D               	clrf	13	;volatile
  4651                           
  4652                           ;mcc_generated_files/pin_manager.c: 82:     WPUA = 0x00;
  4653  052A  018C               	clrf	12	;volatile
  4654                           
  4655                           ;mcc_generated_files/pin_manager.c: 83:     WPUC = 0x00;
  4656  052B  018E               	clrf	14	;volatile
  4657  052C                     l1066:
  4658                           
  4659                           ;mcc_generated_files/pin_manager.c: 84:     OPTION_REGbits.nWPUEN = 1;
  4660  052C  0021               	movlb	1	; select bank1
  4661  052D  1795               	bsf	21,7	;volatile
  4662                           
  4663                           ;mcc_generated_files/pin_manager.c: 89:     ODCONA = 0x00;
  4664  052E  0025               	movlb	5	; select bank5
  4665  052F  018C               	clrf	12	;volatile
  4666                           
  4667                           ;mcc_generated_files/pin_manager.c: 90:     ODCONB = 0x00;
  4668  0530  018D               	clrf	13	;volatile
  4669                           
  4670                           ;mcc_generated_files/pin_manager.c: 91:     ODCONC = 0x00;
  4671  0531  018E               	clrf	14	;volatile
  4672  0532                     l1068:
  4673                           
  4674                           ;mcc_generated_files/pin_manager.c: 96:     SLRCONA = 0x37;
  4675  0532  3037               	movlw	55
  4676  0533  0026               	movlb	6	; select bank6
  4677  0534  008C               	movwf	12	;volatile
  4678  0535                     l1070:
  4679                           
  4680                           ;mcc_generated_files/pin_manager.c: 97:     SLRCONB = 0xF0;
  4681  0535  30F0               	movlw	240
  4682  0536  008D               	movwf	13	;volatile
  4683  0537                     l1072:
  4684                           
  4685                           ;mcc_generated_files/pin_manager.c: 98:     SLRCONC = 0xFF;
  4686  0537  30FF               	movlw	255
  4687  0538  008E               	movwf	14	;volatile
  4688  0539                     l1074:
  4689                           
  4690                           ;mcc_generated_files/pin_manager.c: 103:     INLVLA = 0x3F;
  4691  0539  303F               	movlw	63
  4692  053A  0027               	movlb	7	; select bank7
  4693  053B  008C               	movwf	12	;volatile
  4694  053C                     l1076:
  4695                           
  4696                           ;mcc_generated_files/pin_manager.c: 104:     INLVLB = 0xF0;
  4697  053C  30F0               	movlw	240
  4698  053D  008D               	movwf	13	;volatile
  4699  053E                     l1078:
  4700                           
  4701                           ;mcc_generated_files/pin_manager.c: 105:     INLVLC = 0xFF;
  4702  053E  30FF               	movlw	255
  4703  053F  008E               	movwf	14	;volatile
  4704  0540                     l47:
  4705  0540  0008               	return
  4706  0541                     __end_of_PIN_MANAGER_Initialize:
  4707                           
  4708                           	psect	text13
  4709  04BB                     __ptext13:	
  4710 ;; *************** function _OSCILLATOR_Initialize *****************
  4711 ;; Defined at:
  4712 ;;		line 56 in file "mcc_generated_files/mcc.c"
  4713 ;; Parameters:    Size  Location     Type
  4714 ;;		None
  4715 ;; Auto vars:     Size  Location     Type
  4716 ;;		None
  4717 ;; Return value:  Size  Location     Type
  4718 ;;                  1    wreg      void 
  4719 ;; Registers used:
  4720 ;;		wreg, status,2
  4721 ;; Tracked objects:
  4722 ;;		On entry : 0/0
  4723 ;;		On exit  : 0/0
  4724 ;;		Unchanged: 0/0
  4725 ;; Data sizes:     COMMON   BANK0   BANK1   BANK2   BANK3   BANK4   BANK5   BANK6   BANK7   BANK8   BANK9  BANK10  BANK1
      +1  BANK12
  4726 ;;      Params:         0       0       0       0       0       0       0       0       0       0       0       0       
      +0       0
  4727 ;;      Locals:         0       0       0       0       0       0       0       0       0       0       0       0       
      +0       0
  4728 ;;      Temps:          0       0       0       0       0       0       0       0       0       0       0       0       
      +0       0
  4729 ;;      Totals:         0       0       0       0       0       0       0       0       0       0       0       0       
      +0       0
  4730 ;;Total ram usage:        0 bytes
  4731 ;; Hardware stack levels used: 1
  4732 ;; This function calls:
  4733 ;;		Nothing
  4734 ;; This function is called by:
  4735 ;;		_SYSTEM_Initialize
  4736 ;; This function uses a non-reentrant model
  4737 ;;
  4738                           
  4739  04BB                     _OSCILLATOR_Initialize:	
  4740                           ;psect for function _OSCILLATOR_Initialize
  4741                           
  4742  04BB                     l1080:	
  4743                           ;incstack = 0
  4744                           ; Regs used in _OSCILLATOR_Initialize: [wreg+status,2]
  4745                           
  4746                           
  4747                           ;mcc_generated_files/mcc.c: 59:     OSCCON = 0x58;
  4748  04BB  3058               	movlw	88
  4749  04BC  0021               	movlb	1	; select bank1
  4750  04BD  0099               	movwf	25	;volatile
  4751  04BE                     l1082:
  4752                           
  4753                           ;mcc_generated_files/mcc.c: 61:     OSCTUNE = 0x00;
  4754  04BE  0198               	clrf	24	;volatile
  4755  04BF                     l1084:
  4756                           
  4757                           ;mcc_generated_files/mcc.c: 63:     BORCON = 0x00;
  4758  04BF  0022               	movlb	2	; select bank2
  4759  04C0  0196               	clrf	22	;volatile
  4760  04C1                     l66:
  4761  04C1  0008               	return
  4762  04C2                     __end_of_OSCILLATOR_Initialize:
  4763  007E                     btemp	set	126	;btemp
  4764  007E                     wtemp0	set	126
  4765                           
  4766                           	psect	idloc
  4767                           
  4768                           ;Config register IDLOC0 @ 0x8000
  4769                           ;	unspecified, using default values
  4770  8000                     	org	32768
  4771  8000  3FFF               	dw	16383
  4772                           
  4773                           ;Config register IDLOC1 @ 0x8001
  4774                           ;	unspecified, using default values
  4775  8001                     	org	32769
  4776  8001  3FFF               	dw	16383
  4777                           
  4778                           ;Config register IDLOC2 @ 0x8002
  4779                           ;	unspecified, using default values
  4780  8002                     	org	32770
  4781  8002  3FFF               	dw	16383
  4782                           
  4783                           ;Config register IDLOC3 @ 0x8003
  4784                           ;	unspecified, using default values
  4785  8003                     	org	32771
  4786  8003  3FFF               	dw	16383
  4787                           
  4788                           	psect	config
  4789                           
  4790                           ;Config register CONFIG1 @ 0x8007
  4791                           ;	Oscillator Selection Bits
  4792                           ;	FOSC = INTOSC, INTOSC oscillator: I/O function on CLKIN pin
  4793                           ;	Power-up Timer Enable
  4794                           ;	PWRTE = OFF, PWRT disabled
  4795                           ;	MCLR Pin Function Select
  4796                           ;	MCLRE = ON, MCLR/VPP pin function is MCLR
  4797                           ;	Flash Program Memory Code Protection
  4798                           ;	CP = OFF, Program memory code protection is disabled
  4799                           ;	Brown-out Reset Enable
  4800                           ;	BOREN = ON, Brown-out Reset enabled
  4801                           ;	Clock Out Enable
  4802                           ;	CLKOUTEN = OFF, CLKOUT function is disabled. I/O or oscillator function on the CLKOUT 
      +                          pin
  4803                           ;	Internal/External Switch Over
  4804                           ;	IESO = ON, Internal External Switch Over mode is enabled
  4805                           ;	Fail-Safe Clock Monitor Enable
  4806                           ;	FCMEN = ON, Fail-Safe Clock Monitor is enabled
  4807  8007                     	org	32775
  4808  8007  3FFC               	dw	16380
  4809                           
  4810                           ;Config register CONFIG2 @ 0x8008
  4811                           ;	Flash Memory Self-Write Protection
  4812                           ;	WRT = OFF, Write protection off
  4813                           ;	Peripheral Pin Select one-way control
  4814                           ;	PPS1WAY = ON, The PPSLOCK bit cannot be cleared once it is set by software
  4815                           ;	Zero Cross Detect Disable Bit
  4816                           ;	ZCD = OFF, ZCD disable.  ZCD can be enabled by setting the ZCDSEN bit of ZCDCON
  4817                           ;	PLL Enable Bit
  4818                           ;	PLLEN = OFF, 4x PLL is enabled when software sets the SPLLEN bit
  4819                           ;	Stack Overflow/Underflow Reset Enable
  4820                           ;	STVREN = ON, Stack Overflow or Underflow will cause a Reset
  4821                           ;	Brown-out Reset Voltage Selection
  4822                           ;	BORV = LO, Brown-out Reset Voltage (Vbor), low trip point selected.
  4823                           ;	Low-Power Brown Out Reset
  4824                           ;	LPBOR = OFF, Low-Power BOR is disabled
  4825                           ;	Low-Voltage Programming Enable
  4826                           ;	LVP = ON, Low-voltage programming enabled
  4827  8008                     	org	32776
  4828  8008  3EFF               	dw	16127
  4829                           
  4830                           ;Config register CONFIG3 @ 0x8009
  4831                           ;	WDT Period Select
  4832                           ;	WDTCPS = WDTCPS1F, Software Control (WDTPS)
  4833                           ;	Watchdog Timer Enable
  4834                           ;	WDTE = OFF, WDT disabled
  4835                           ;	WDT Window Select
  4836                           ;	WDTCWS = WDTCWSSW, Software WDT window size control (WDTWS bits)
  4837                           ;	WDT Input Clock Selector
  4838                           ;	WDTCCS = SWC, Software control, controlled by WDTCS bits
  4839  8009                     	org	32777
  4840  8009  3F9F               	dw	16287

Data Sizes:
    Strings     0
    Constant    34
    Data        8
    BSS         6
    Persistent  32
    Stack       0

Auto Spaces:
    Space          Size  Autos    Used
    COMMON           14     14      14
    BANK0            80     24      38
    BANK1            80      0       0
    BANK2            80      0       0
    BANK3            80      0       0
    BANK4            80      0       0
    BANK5            80      0       0
    BANK6            80      0       0
    BANK7            80      0       0
    BANK8            80      0       0
    BANK9            80      0       0
    BANK10           80      0       0
    BANK11           80      0       0
    BANK12           48      0       0

Pointer List with Targets:

    tm1637DisplayDecimal@display.port	PTR volatile unsigned char  size(1) Largest target is 0

    tm1637DisplayDecimal@display.CLK.port	PTR volatile unsigned char  size(1) Largest target is 0

    tm1637DisplayDecimal@display.DIO.port	PTR volatile unsigned char  size(1) Largest target is 0

    tm1637SetBrightness@display.port	PTR volatile unsigned char  size(1) Largest target is 0

    tm1637SetBrightness@display.CLK.port	PTR volatile unsigned char  size(1) Largest target is 0

    tm1637SetBrightness@display.DIO.port	PTR volatile unsigned char  size(1) Largest target is 0

    _tm1637Stop@display.port	PTR volatile unsigned char  size(1) Largest target is 0

    _tm1637ReadResult@display.port	PTR volatile unsigned char  size(1) Largest target is 0

    _tm1637WriteByte@display.port	PTR volatile unsigned char  size(1) Largest target is 0

    _tm1637Start@display.port	PTR volatile unsigned char  size(1) Largest target is 0

    ?_tm1637Init.port	PTR volatile unsigned char  size(1) Largest target is 0

    ?_tm1637Init.CLK.port	PTR volatile unsigned char  size(1) Largest target is 0

    ?_tm1637Init.DIO.port	PTR volatile unsigned char  size(1) Largest target is 0

    _tm1637WriteByte@display.CLK.port	PTR volatile unsigned char  size(1) Largest target is 0

    _tm1637WriteByte@display.DIO.port	PTR volatile unsigned char  size(1) Largest target is 0

    _tm1637WriteByte@display	PTR volatile struct . size(1) Largest target is 8
		 -> tm1637Init@display(BANK0[6]), 

    _tm1637ReadResult@display.CLK.port	PTR volatile unsigned char  size(1) Largest target is 0

    _tm1637ReadResult@display.DIO.port	PTR volatile unsigned char  size(1) Largest target is 0

    _tm1637ReadResult@display	PTR volatile struct . size(1) Largest target is 8
		 -> tm1637Init@display(BANK0[6]), 

    _tm1637Stop@display.CLK.port	PTR volatile unsigned char  size(1) Largest target is 0

    _tm1637Stop@display.DIO.port	PTR volatile unsigned char  size(1) Largest target is 0

    _tm1637Stop@display	PTR volatile struct . size(1) Largest target is 8
		 -> tm1637Init@display(BANK0[6]), 

    _tm1637Start@display.CLK.port	PTR volatile unsigned char  size(1) Largest target is 0

    _tm1637Start@display.DIO.port	PTR volatile unsigned char  size(1) Largest target is 0

    _tm1637Start@display	PTR volatile struct . size(1) Largest target is 8
		 -> tm1637Init@display(BANK0[6]), 

    tm1637SetBrightness@display	PTR volatile struct . size(1) Largest target is 8
		 -> tm1637Init@display(BANK0[6]), 

    tm1637DisplayDecimal@display	PTR volatile struct . size(1) Largest target is 8
		 -> tm1637Init@display(BANK0[6]), 

    sp__tm1637Init.port	PTR volatile unsigned char  size(1) Largest target is 0

    sp__tm1637Init.CLK.port	PTR volatile unsigned char  size(1) Largest target is 0

    sp__tm1637Init.DIO.port	PTR volatile unsigned char  size(1) Largest target is 0

    F9668.CLK.port	PTR volatile unsigned char  size(1) Largest target is 0

    F9668.DIO.port	PTR volatile unsigned char  size(1) Largest target is 0

    CLK.port	PTR volatile unsigned char  size(1) Largest target is 0

    S255$port	PTR volatile unsigned char  size(1) Largest target is 0

    DIO.port	PTR volatile unsigned char  size(1) Largest target is 0

    CLK.port	PTR volatile unsigned char  size(1) Largest target is 0

    DIO.port	PTR volatile unsigned char  size(1) Largest target is 0

    CLK.port	PTR volatile unsigned char  size(1) Largest target is 0

    DIO.port	PTR volatile unsigned char  size(1) Largest target is 0

    CLK.port	PTR volatile unsigned char  size(1) Largest target is 0

    DIO.port	PTR volatile unsigned char  size(1) Largest target is 0

    CLK.port	PTR volatile unsigned char  size(1) Largest target is 0

    S195$port	PTR volatile unsigned char  size(1) Largest target is 0

    DIO.port	PTR volatile unsigned char  size(1) Largest target is 0

    S185$port	PTR volatile unsigned char  size(1) Largest target is 0

    pin.port	PTR volatile unsigned char  size(1) Largest target is 0

    main@display.port	PTR volatile unsigned char  size(2) Largest target is 1
		 -> PORTA(SFR0[1]), 

    main@display.CLK.port	PTR volatile unsigned char  size(2) Largest target is 1
		 -> PORTA(SFR0[1]), 

    main@display.DIO.port	PTR volatile unsigned char  size(2) Largest target is 1
		 -> PORTA(SFR0[1]), 

    sp__tm1637Init	PTR volatile struct . size(1) Largest target is 8
		 -> tm1637Init@display(BANK0[6]), 

    main@display	PTR volatile struct . size(1) Largest target is 8
		 -> tm1637Init@display(BANK0[6]), 

    F9981.port	PTR volatile unsigned char  size(2) Largest target is 1
		 -> PORTA(SFR0[1]), 

    F9980.port	PTR volatile unsigned char  size(2) Largest target is 1
		 -> PORTA(SFR0[1]), 

    F9979.port	PTR volatile unsigned char  size(2) Largest target is 1
		 -> PORTA(SFR0[1]), 

    S94$port	PTR volatile unsigned char  size(2) Largest target is 1
		 -> PORTA(SFR0[1]), 

    F9978.port	PTR volatile unsigned char  size(2) Largest target is 1
		 -> PORTA(SFR0[1]), 


Critical Paths under _main in COMMON

    _main->_tm1637SetBrightness
    _tm1637Init->_tm1637SetBrightness
    _tm1637SetBrightness->__tm1637WriteByte
    _tm1637DisplayDecimal->__tm1637WriteByte
    __tm1637WriteByte->_write_reg
    __tm1637Stop->_write_reg
    __tm1637Start->_write_reg
    __tm1637ReadResult->_write_reg

Critical Paths under _main in BANK0

    _main->_tm1637DisplayDecimal

Critical Paths under _main in BANK1

    None.

Critical Paths under _main in BANK2

    None.

Critical Paths under _main in BANK3

    None.

Critical Paths under _main in BANK4

    None.

Critical Paths under _main in BANK5

    None.

Critical Paths under _main in BANK6

    None.

Critical Paths under _main in BANK7

    None.

Critical Paths under _main in BANK8

    None.

Critical Paths under _main in BANK9

    None.

Critical Paths under _main in BANK10

    None.

Critical Paths under _main in BANK11

    None.

Critical Paths under _main in BANK12

    None.

Call Graph Tables:

 ---------------------------------------------------------------------------------
 (Depth) Function   	        Calls       Base Space   Used Autos Params    Refs
 ---------------------------------------------------------------------------------
 (0) _main                                                11    11      0   58687
                                             13 BANK0     11    11      0
                  _SYSTEM_Initialize
               _tm1637DisplayDecimal
                         _tm1637Init
                _tm1637SetBrightness
 ---------------------------------------------------------------------------------
 (1) _tm1637Init                                           7     1      6   19231
                                              0 BANK0      7     1      6
                _tm1637SetBrightness
 ---------------------------------------------------------------------------------
 (1) _tm1637SetBrightness                                  3     2      1   19035
                                             11 COMMON     3     2      1
                  __tm1637ReadResult
                       __tm1637Start
                        __tm1637Stop
                   __tm1637WriteByte
 ---------------------------------------------------------------------------------
 (1) _tm1637DisplayDecimal                                14    10      4   20330
                                             11 COMMON     1     1      0
                                              0 BANK0     13     9      4
                            ___awdiv
                            ___awmod
                  __tm1637ReadResult
                       __tm1637Start
                        __tm1637Stop
                   __tm1637WriteByte
 ---------------------------------------------------------------------------------
 (2) __tm1637WriteByte                                     5     4      1    4984
                                              6 COMMON     5     4      1
                          _write_reg
 ---------------------------------------------------------------------------------
 (2) __tm1637Stop                                          1     1      0    4578
                                              6 COMMON     1     1      0
                          _write_reg
 ---------------------------------------------------------------------------------
 (2) __tm1637Start                                         1     1      0    4556
                                              6 COMMON     1     1      0
                          _write_reg
 ---------------------------------------------------------------------------------
 (2) __tm1637ReadResult                                    1     1      0    4589
                                              6 COMMON     1     1      0
                          _write_reg
 ---------------------------------------------------------------------------------
 (3) _write_reg                                            6     2      4    4391
                                              0 COMMON     6     2      4
 ---------------------------------------------------------------------------------
 (2) ___awmod                                              7     3      4     448
                                              0 COMMON     7     3      4
 ---------------------------------------------------------------------------------
 (2) ___awdiv                                              9     5      4     452
                                              0 COMMON     9     5      4
 ---------------------------------------------------------------------------------
 (1) _SYSTEM_Initialize                                    0     0      0       0
              _OSCILLATOR_Initialize
             _PIN_MANAGER_Initialize
 ---------------------------------------------------------------------------------
 (2) _PIN_MANAGER_Initialize                               0     0      0       0
 ---------------------------------------------------------------------------------
 (2) _OSCILLATOR_Initialize                                0     0      0       0
 ---------------------------------------------------------------------------------
 Estimated maximum stack depth 3
 ---------------------------------------------------------------------------------

 Call Graph Graphs:

 _main (ROOT)
   _SYSTEM_Initialize
     _OSCILLATOR_Initialize
     _PIN_MANAGER_Initialize
   _tm1637DisplayDecimal
     ___awdiv
     ___awmod
     __tm1637ReadResult
       _write_reg
     __tm1637Start
       _write_reg
     __tm1637Stop
       _write_reg
     __tm1637WriteByte
       _write_reg
   _tm1637Init
     _tm1637SetBrightness
       __tm1637ReadResult
       __tm1637Start
       __tm1637Stop
       __tm1637WriteByte
   _tm1637SetBrightness

 Address spaces:
Name               Size   Autos  Total    Cost      Usage
BIGRAM             3F0      0       0       0        0.0%
NULL                 0      0       0       0        0.0%
CODE                 0      0       0       0        0.0%
BITCOMMON            E      0       0       1        0.0%
BITSFR0              0      0       0       1        0.0%
SFR0                 0      0       0       1        0.0%
COMMON               E      E       E       2      100.0%
BITSFR1              0      0       0       2        0.0%
SFR1                 0      0       0       2        0.0%
BITSFR2              0      0       0       3        0.0%
SFR2                 0      0       0       3        0.0%
STACK                0      0       0       3        0.0%
BITBANK0            50      0       0       4        0.0%
BITSFR3              0      0       0       4        0.0%
SFR3                 0      0       0       4        0.0%
BANK0               50     18      26       5       47.5%
BITSFR4              0      0       0       5        0.0%
SFR4                 0      0       0       5        0.0%
BITBANK1            50      0       0       6        0.0%
BITSFR5              0      0       0       6        0.0%
SFR5                 0      0       0       6        0.0%
BANK1               50      0       0       7        0.0%
BITSFR6              0      0       0       7        0.0%
SFR6                 0      0       0       7        0.0%
BITBANK2            50      0       0       8        0.0%
BITSFR7              0      0       0       8        0.0%
SFR7                 0      0       0       8        0.0%
BANK2               50      0       0       9        0.0%
BITSFR8              0      0       0       9        0.0%
SFR8                 0      0       0       9        0.0%
BITBANK3            50      0       0      10        0.0%
BITSFR9              0      0       0      10        0.0%
SFR9                 0      0       0      10        0.0%
BANK3               50      0       0      11        0.0%
BITSFR10             0      0       0      11        0.0%
SFR10                0      0       0      11        0.0%
BITBANK4            50      0       0      12        0.0%
BITSFR11             0      0       0      12        0.0%
SFR11                0      0       0      12        0.0%
BANK4               50      0       0      13        0.0%
BITSFR12             0      0       0      13        0.0%
SFR12                0      0       0      13        0.0%
BITBANK5            50      0       0      14        0.0%
BITSFR13             0      0       0      14        0.0%
SFR13                0      0       0      14        0.0%
BANK5               50      0       0      15        0.0%
BITSFR14             0      0       0      15        0.0%
SFR14                0      0       0      15        0.0%
BITBANK6            50      0       0      16        0.0%
BITSFR15             0      0       0      16        0.0%
SFR15                0      0       0      16        0.0%
BANK6               50      0       0      17        0.0%
BITSFR16             0      0       0      17        0.0%
SFR16                0      0       0      17        0.0%
BITBANK7            50      0       0      18        0.0%
BITSFR17             0      0       0      18        0.0%
SFR17                0      0       0      18        0.0%
BANK7               50      0       0      19        0.0%
BITSFR18             0      0       0      19        0.0%
SFR18                0      0       0      19        0.0%
BITSFR19             0      0       0      20        0.0%
SFR19                0      0       0      20        0.0%
ABS                  0      0      34      20        0.0%
BITBANK8            50      0       0      21        0.0%
BITSFR20             0      0       0      21        0.0%
SFR20                0      0       0      21        0.0%
BANK8               50      0       0      22        0.0%
BITSFR21             0      0       0      22        0.0%
SFR21                0      0       0      22        0.0%
BITBANK9            50      0       0      23        0.0%
BITSFR22             0      0       0      23        0.0%
SFR22                0      0       0      23        0.0%
BANK9               50      0       0      24        0.0%
BITSFR23             0      0       0      24        0.0%
SFR23                0      0       0      24        0.0%
BITBANK10           50      0       0      25        0.0%
BITSFR24             0      0       0      25        0.0%
SFR24                0      0       0      25        0.0%
BANK10              50      0       0      26        0.0%
BITSFR25             0      0       0      26        0.0%
SFR25                0      0       0      26        0.0%
BITBANK11           50      0       0      27        0.0%
BITSFR26             0      0       0      27        0.0%
SFR26                0      0       0      27        0.0%
BANK11              50      0       0      28        0.0%
BITSFR27             0      0       0      28        0.0%
SFR27                0      0       0      28        0.0%
BITBANK12           30      0       0      29        0.0%
BITSFR28             0      0       0      29        0.0%
SFR28                0      0       0      29        0.0%
BANK12              30      0       0      30        0.0%
BITSFR29             0      0       0      30        0.0%
SFR29                0      0       0      30        0.0%
BITSFR30             0      0       0      31        0.0%
SFR30                0      0       0      31        0.0%
DATA                 0      0      34      31        0.0%
BITSFR31             0      0       0      32        0.0%
SFR31                0      0       0      32        0.0%


Microchip Technology PIC Macro Assembler V2.35 build 20211206165544 
Symbol Table                                                                                   Fri Apr  8 11:42:48 2022

                                  l47 0540                                    l63 04C8  
                                  l66 04C1                                    l99 04E7  
                        ___awdiv@sign 0076                                   l160 04FE  
                                 l410 062E                                   l163 056D  
                                 l157 07EA                                   l149 0515  
                                 l166 05DB                                   l176 0686  
                                 l169 059E                                   l397 073D  
                                 u300 0644                                   u301 0643  
                                 u310 0686                                   u311 0685  
                                 u400 072F                                   u320 06E4  
                                 u401 072E                                   u321 06E3  
                                 u410 0734                                   u330 06EF  
                                 u411 0733                                   u331 06EE  
                                 u315 0682                                   u340 0700  
                                 u500 0625                                   u420 05E1  
                                 u341 06FF                                   u501 0624  
                                 u421 05E0                                   u430 05EC  
                                 u510 0766                                   u431 05EB  
                                 u511 0765                                   u360 0710  
                                 u440 05F7                                   u520 076C  
                                 u361 070F                                   u441 05F6  
                                 u521 076B                                   u530 0792  
                                 u355 0704                                   u531 0791  
                                 u380 071F                                   u460 0607  
                                 u540 07E5                                   u381 071E  
                                 u461 0606                                   u541 07E4  
                                 u470 0611                                   u294 04DD  
                                 u375 0711                                   u471 0610  
                                 u455 05FB                                   u295 04DC  
                                 u535 078E                                   u385 071B  
                                 u545 07E1                                   u490 0620  
                                 u395 0725                                   u491 061F  
                                 u475 060D                                   u485 0616  
                                 u577 0693                                   u587 06D7  
       tm1637SetBrightness@brightness 007B                          ___awmod@sign 0076  
                                 wreg 0009  tm1637DisplayDecimal@displaySeparator 0022  
                                l1010 04D1                                  l1100 06F4  
                                l1012 0542                                  l1110 0708  
                                l1102 06F8                                  l1014 055F  
                                l1030 0660                                  l1022 0632  
                                l1120 0724                                  l1112 070C  
                                l1104 06FA                                  l1040 057D  
                                l1032 0662                                  l1024 0640  
                                l1016 0630                                  l1200 0792  
                         main@display 002F                                  l1122 0729  
                                l1114 0710                                  l1106 0700  
                                l1042 058F                                  l1050 05CC  
                                l1034 0664                                  l1026 0644  
                                l1210 07D3                                  l1202 07BD  
                                l1060 0521                                  l1052 0516  
                                l1116 071F                                  l1108 0703  
                                l1124 072F                                  l1140 05E8  
                                l1132 05DC                                  l1044 05A0  
                                l1036 0673                                  l1028 0653  
                                l1212 07D8                                  l1070 0535  
                                l1062 0524                                  l1054 051A  
                                l1126 0734                                  l1118 0723  
                                l1150 05FF                                  l1142 05EC  
                                l1134 05DD                                  l1038 056F  
                                l1046 05AE                                  l1214 07E5  
                                l1080 04BB                                  l1072 0537  
                                l1064 0526                                  l1056 051D  
                                l1128 0739                                  l1160 061A  
                                l1152 0603                                  l1144 05F1  
                                l1136 05E1                                  l1048 05BC  
                                l1208 07C0                                  l1082 04BE  
                                l1074 0539                                  l1066 052C  
                                l1058 051F                                  l1170 04C2  
                                l1090 06E0                                  l1154 0607  
                                l1146 05F7                                  l1162 0620  
                                l1138 05E6                                  l1084 04BF  
                                l1076 053C                                  l1068 0532  
                                l1092 06E4                                  l1164 0625  
                                l1156 0611                                  l1148 05FA  
                                l1180 0740                                  l1172 04FF  
                                l1078 053E                                  l1094 06E9  
                                l1166 062A                                  l1158 0615  
                                l1190 0766                                  l1086 04E9  
                                l1174 050C                                  l1270 068A  
                                l1096 06EB                                  l1088 06DF  
                                l1192 076C                                  l1176 0514  
                                l1280 06AB                                  l1272 068C  
                                l1098 06EF                                  l1194 0771  
                                l1186 0742                                  l1282 06BE  
                                l1274 068D                                  l1196 0781  
                                l1188 075F                                  l1284 06C6  
                                l1276 069A                                  l1268 0687  
                                l1198 0785                                  l1286 06D3  
                                l1278 06A3                                  _LATA 010C  
                                _LATB 010D                                  _LATC 010E  
                                _WPUA 020C                                  _WPUB 020D  
                                _WPUC 020E                                  _main 0687  
                                fsr0h 0005                                  fsr1h 0007  
                                indf0 0000                                  fsr0l 0004  
                                indf1 0001                                  fsr1l 0006  
                                btemp 007E                         write_reg@data 0073  
                                start 0002                 __end_of_minusSegments 0822  
               tm1637DisplayDecimal@i 002A                 tm1637DisplayDecimal@v 0020  
       __end_of_OSCILLATOR_Initialize 04C2                                 ?_main 0070  
                     __end_of___awdiv 073E                       __end_of___awmod 062F  
                     ___awdiv@divisor 0070                       ___awdiv@counter 0075  
                               _TRISA 008C                                 _TRISB 008D  
                               _TRISC 008E              __end_of__tm1637WriteByte 0687  
                               status 0003                                 wtemp0 007E  
                     __initialization 07EB                          __end_of_main 06DF  
                              ??_main 002D                      ___awdiv@dividend 0072  
                              _ANSELA 018C                                _ANSELB 018D  
                              _ANSELC 018E                                _BORCON 0116  
                              _ODCONA 028C                                _ODCONB 028D  
                              _ODCONC 028E                                _INLVLA 038C  
                              _INLVLB 038D                                _INLVLC 038E  
                              _OSCCON 0099                             ??___awdiv 0074  
                           ??___awmod 0074                      ___awdiv@quotient 0077  
                     ___awmod@divisor 0070                       ___awmod@counter 0075  
                   _SYSTEM_Initialize 04C2               __end_of__initialization 07FD  
                  ?_SYSTEM_Initialize 0070                        __pcstackCOMMON 0070  
                        __pidataBANK0 04C9                   ??_SYSTEM_Initialize 0070  
                          _tm1637Init 04FF                         ??__tm1637Stop 0076  
                      _OPTION_REGbits 0095                     tm1637Init@display 0040  
                 _tm1637SetBrightness 04E8             __end_of_SYSTEM_Initialize 04C9  
                          __pbssBANK0 0040          __end_of_tm1637DisplayDecimal 07EB  
                ?_tm1637SetBrightness 007B                            __pmaintext 0687  
                             _OSCTUNE 0098                     ?__tm1637WriteByte 0076  
                             _SLRCONA 030C                               _SLRCONB 030D  
                             _SLRCONC 030E                    ??__tm1637WriteByte 0077  
                 __end_of__tm1637Stop 05DC                 ??_tm1637SetBrightness 007C  
                             ___awdiv 06DF                               ___awmod 05DC  
                         ?_tm1637Init 0020                        _digitToSegment 0811  
                             __ptext1 04FF                               __ptext2 04E8  
                             __ptext3 073E                               __ptext4 062F  
                             __ptext5 059F                               __ptext6 0541  
                             __ptext7 056E                               __ptext8 04D1  
                             __ptext9 05DC              __tm1637WriteByte@display 007A  
               _OSCILLATOR_Initialize 04BB                      ___awmod@dividend 0072  
            ??_PIN_MANAGER_Initialize 0070                  end_of_initialization 07FD  
                             init_ram 04B5                            _segmentMap 0800  
                             initloop 04B6                    __tm1637WriteByte@b 0076  
                  __tm1637WriteByte@i 0078                __end_of_digitToSegment 0821  
                _tm1637DisplayDecimal 073E                     __end_of_write_reg 04E8  
                         __tm1637Stop 059F                         ?__tm1637Start 0070  
                __tm1637Start@display 0076                          write_reg@pin 0070  
                       _minusSegments 0821                 ?_tm1637DisplayDecimal 0020  
              ?_OSCILLATOR_Initialize 0070                   start_initialization 07EB  
        tm1637DisplayDecimal@digitArr 0024                        ??__tm1637Start 0076  
                   __tm1637ReadResult 056E                    ?__tm1637ReadResult 0070  
                         __pdataBANK0 0038                   ??__tm1637ReadResult 0076  
          tm1637SetBrightness@display 007D                             ___latbits 0002  
                       __pcstackBANK0 0020             __tm1637ReadResult@display 0076  
           __end_of__tm1637ReadResult 059F                _PIN_MANAGER_Initialize 0516  
                            ?___awdiv 0070                              ?___awmod 0070  
                        ??_tm1637Init 0026                ??_tm1637DisplayDecimal 007B  
                       tm1637Init@CLK 0023                         tm1637Init@DIO 0020  
         __end_of_tm1637SetBrightness 04FF                    __end_of_tm1637Init 0516  
                            _LATAbits 010C                             main@F9980 0038  
                           main@F9978 003C                  __end_of__tm1637Start 056E  
                        ?__tm1637Stop 0070                             _write_reg 04D1  
         tm1637DisplayDecimal@display 002C                   __tm1637Stop@display 0076  
             ??_OSCILLATOR_Initialize 0070                              __ptext10 06DF  
                            __ptext11 04C2                              __ptext12 0516  
                            __ptext13 04BB                            ?_write_reg 0070  
                    __tm1637WriteByte 062F                              main@9981 0034  
                            main@9979 0030                    __end_of_segmentMap 0811  
           tm1637DisplayDecimal@i_323 0028               ?_PIN_MANAGER_Initialize 0070  
                       __pstringtext1 0800                         __pstringtext2 0811  
                       __pstringtext3 0821                           ??_write_reg 0074  
      __end_of_PIN_MANAGER_Initialize 0541                          __tm1637Start 0541  
